Archive member included because of file (symbol)

contiki-dcg-mcmote.a(rimeaddr.o)
                              obj_dcg-mcmote/contiki-mc1322x-main.o (rimeaddr_copy)
contiki-dcg-mcmote.a(nullmac.o)
                              obj_dcg-mcmote/contiki-mc1322x-main.o (nullmac_driver)
contiki-dcg-mcmote.a(nullrdc.o)
                              udp-sink.co (nullrdc_driver)
contiki-dcg-mcmote.a(mac.o)   contiki-dcg-mcmote.a(nullrdc.o) (mac_call_sent_callback)
contiki-dcg-mcmote.a(framer-802154.o)
                              contiki-dcg-mcmote.a(nullrdc.o) (framer_802154)
contiki-dcg-mcmote.a(rpl-dag.o)
                              udp-sink.co (rpl_get_dag)
contiki-dcg-mcmote.a(rpl-icmp6.o)
                              contiki-dcg-mcmote.a(rpl-dag.o) (dao_output)
contiki-dcg-mcmote.a(rpl-timers.o)
                              contiki-dcg-mcmote.a(rpl-dag.o) (rpl_schedule_dao)
contiki-dcg-mcmote.a(rpl-of-etx.o)
                              contiki-dcg-mcmote.a(rpl-dag.o) (rpl_of_etx)
contiki-dcg-mcmote.a(process.o)
                              obj_dcg-mcmote/contiki-mc1322x-main.o (process_init)
contiki-dcg-mcmote.a(autostart.o)
                              obj_dcg-mcmote/contiki-mc1322x-main.o (autostart_start)
contiki-dcg-mcmote.a(serial-line.o)
                              udp-sink.co (serial_line_init)
contiki-dcg-mcmote.a(memb.o)  contiki-dcg-mcmote.a(rpl-dag.o) (memb_alloc)
contiki-dcg-mcmote.a(list.o)  contiki-dcg-mcmote.a(rpl-dag.o) (list_init)
contiki-dcg-mcmote.a(etimer.o)
                              contiki-dcg-mcmote.a(rpl-timers.o) (etimer_expired)
contiki-dcg-mcmote.a(ctimer.o)
                              contiki-dcg-mcmote.a(rpl-dag.o) (ctimer_stop)
contiki-dcg-mcmote.a(stimer.o)
                              contiki-dcg-mcmote.a(rpl-icmp6.o) (stimer_set)
contiki-dcg-mcmote.a(random.o)
                              obj_dcg-mcmote/collect-common.o (random_rand)
contiki-dcg-mcmote.a(ringbuf.o)
                              contiki-dcg-mcmote.a(serial-line.o) (ringbuf_init)
contiki-dcg-mcmote.a(uip-debug.o)
                              udp-sink.co (uip_debug_ipaddr_print)
contiki-dcg-mcmote.a(packetbuf.o)
                              contiki-dcg-mcmote.a(framer-802154.o) (packetbuf_hdrreduce)
contiki-dcg-mcmote.a(queuebuf.o)
                              obj_dcg-mcmote/contiki-mc1322x-main.o (queuebuf_init)
contiki-dcg-mcmote.a(uip6.o)  contiki-dcg-mcmote.a(rpl-icmp6.o) (uip_ext_len)
contiki-dcg-mcmote.a(tcpip.o)
                              contiki-dcg-mcmote.a(uip6.o) (tcpip_uipcall)
contiki-dcg-mcmote.a(uip-icmp6.o)
                              contiki-dcg-mcmote.a(rpl-icmp6.o) (uip_icmp6_send)
contiki-dcg-mcmote.a(uip-nd6.o)
                              contiki-dcg-mcmote.a(uip6.o) (uip_nd6_na_input)
contiki-dcg-mcmote.a(sicslowpan.o)
                              obj_dcg-mcmote/contiki-mc1322x-main.o (sicslowpan_driver)
contiki-dcg-mcmote.a(neighbor-info.o)
                              contiki-dcg-mcmote.a(sicslowpan.o) (neighbor_info_packet_received)
contiki-dcg-mcmote.a(uip-ds6.o)
                              contiki-dcg-mcmote.a(rpl-dag.o) (uip_ds6_defrt_rm)
contiki-dcg-mcmote.a(clock.o)
                              obj_dcg-mcmote/contiki-mc1322x-main.o (clock_init)
contiki-dcg-mcmote.a(button-sensor.o)
                              udp-sink.co (button_sensor)
contiki-dcg-mcmote.a(sensors.o)
                              contiki-dcg-mcmote.a(button-sensor.o) (sensors_changed)
contiki-dcg-mcmote.a(watchdog.o)
                              contiki-dcg-mcmote.a(sicslowpan.o) (watchdog_periodic)
contiki-dcg-mcmote.a(contiki-crm.o)
                              obj_dcg-mcmote/contiki-mc1322x-main.o (cal_ring_osc)
contiki-dcg-mcmote.a(contiki-maca.o)
                              contiki-dcg-mcmote.a(nullrdc.o) (contiki_maca_driver)
contiki-dcg-mcmote.a(contiki-misc.o)
                              contiki-dcg-mcmote.a(random.o) (srand)
contiki-dcg-mcmote.a(leds.o)  contiki-dcg-mcmote.a(clock.o) (leds_toggle)
contiki-dcg-mcmote.a(contiki-uart.o)
                              udp-sink.co (uart1_set_input)
contiki-dcg-mcmote.a(dbg-printf.o)
                              udp-sink.co (printf)
contiki-dcg-mcmote.a(strformat.o)
                              contiki-dcg-mcmote.a(dbg-printf.o) (format_str_v)
contiki-dcg-mcmote.a(maca.o)  contiki-dcg-mcmote.a(contiki-maca.o) (free_packet)
contiki-dcg-mcmote.a(nvm.o)   obj_dcg-mcmote/contiki-mc1322x-main.o (nvm_detect)
contiki-dcg-mcmote.a(uart1.o)
                              obj_dcg-mcmote/contiki-mc1322x-main.o (uart1_getc)
contiki-dcg-mcmote.a(default_lowleve)
                              obj_dcg-mcmote/contiki-mc1322x-main.o (default_vreg_init)
contiki-dcg-mcmote.a(isr.o)   obj_dcg-mcmote/start.o (irq)
contiki-dcg-mcmote.a(frame802154.o)
                              contiki-dcg-mcmote.a(framer-802154.o) (frame802154_parse)
contiki-dcg-mcmote.a(rpl.o)   contiki-dcg-mcmote.a(tcpip.o) (rpl_init)
contiki-dcg-mcmote.a(timer.o)
                              contiki-dcg-mcmote.a(etimer.o) (timer_reset)
contiki-dcg-mcmote.a(neighbor-attr.o)
                              contiki-dcg-mcmote.a(neighbor-info.o) (neighbor_attr_get_data)
contiki-dcg-mcmote.a(debug-uart.o)
                              contiki-dcg-mcmote.a(dbg-printf.o) (dbg_send_bytes)
contiki-dcg-mcmote.a(leds-arch.o)
                              contiki-dcg-mcmote.a(leds.o) (leds_arch_init)
contiki-dcg-mcmote.a(uart2.o)
                              contiki-dcg-mcmote.a(default_lowleve) (u2_tx_head)
/opt/local/CodeSourcery/Sourcery_G++_Lite/bin/../lib/gcc/arm-none-eabi/4.3.2/libgcc.a(_udivsi3.o)
                              contiki-dcg-mcmote.a(rpl-dag.o) (__aeabi_uidiv)
/opt/local/CodeSourcery/Sourcery_G++_Lite/bin/../lib/gcc/arm-none-eabi/4.3.2/libgcc.a(_divsi3.o)
                              obj_dcg-mcmote/contiki-mc1322x-main.o (__aeabi_idiv)
/opt/local/CodeSourcery/Sourcery_G++_Lite/bin/../lib/gcc/arm-none-eabi/4.3.2/libgcc.a(_dvmd_tls.o)
                              /opt/local/CodeSourcery/Sourcery_G++_Lite/bin/../lib/gcc/arm-none-eabi/4.3.2/libgcc.a(_udivsi3.o) (__aeabi_idiv0)
/opt/local/CodeSourcery/Sourcery_G++_Lite/bin/../lib/gcc/arm-none-eabi/4.3.2/libgcc.a(_aeabi_uldivmod.o)
                              contiki-dcg-mcmote.a(strformat.o) (__aeabi_uldivmod)
/opt/local/CodeSourcery/Sourcery_G++_Lite/bin/../lib/gcc/arm-none-eabi/4.3.2/libgcc.a(bpabi.o)
                              /opt/local/CodeSourcery/Sourcery_G++_Lite/bin/../lib/gcc/arm-none-eabi/4.3.2/libgcc.a(_aeabi_uldivmod.o) (__gnu_uldivmod_helper)
/opt/local/CodeSourcery/Sourcery_G++_Lite/bin/../lib/gcc/arm-none-eabi/4.3.2/libgcc.a(_divdi3.o)
                              /opt/local/CodeSourcery/Sourcery_G++_Lite/bin/../lib/gcc/arm-none-eabi/4.3.2/libgcc.a(bpabi.o) (__divdi3)
/opt/local/CodeSourcery/Sourcery_G++_Lite/bin/../lib/gcc/arm-none-eabi/4.3.2/libgcc.a(_udivdi3.o)
                              /opt/local/CodeSourcery/Sourcery_G++_Lite/bin/../lib/gcc/arm-none-eabi/4.3.2/libgcc.a(bpabi.o) (__udivdi3)
/opt/local/CodeSourcery/Sourcery_G++_Lite/bin/../lib/gcc/arm-none-eabi/4.3.2/libgcc.a(_clz.o)
                              /opt/local/CodeSourcery/Sourcery_G++_Lite/bin/../lib/gcc/arm-none-eabi/4.3.2/libgcc.a(_divdi3.o) (__clz_tab)
/opt/local/CodeSourcery/Sourcery_G++_Lite/bin/../lib/gcc/arm-none-eabi/4.3.2/../../../../arm-none-eabi/lib/libc.a(lib_a-ctype_.o)
                              obj_dcg-mcmote/collect-common.o (__ctype_ptr__)
/opt/local/CodeSourcery/Sourcery_G++_Lite/bin/../lib/gcc/arm-none-eabi/4.3.2/../../../../arm-none-eabi/lib/libc.a(lib_a-memcmp.o)
                              obj_dcg-mcmote/contiki-mc1322x-main.o (memcmp)
/opt/local/CodeSourcery/Sourcery_G++_Lite/bin/../lib/gcc/arm-none-eabi/4.3.2/../../../../arm-none-eabi/lib/libc.a(lib_a-memcpy.o)
                              obj_dcg-mcmote/collect-common.o (memcpy)
/opt/local/CodeSourcery/Sourcery_G++_Lite/bin/../lib/gcc/arm-none-eabi/4.3.2/../../../../arm-none-eabi/lib/libc.a(lib_a-memmove.o)
                              contiki-dcg-mcmote.a(uip-icmp6.o) (memmove)
/opt/local/CodeSourcery/Sourcery_G++_Lite/bin/../lib/gcc/arm-none-eabi/4.3.2/../../../../arm-none-eabi/lib/libc.a(lib_a-memset.o)
                              contiki-dcg-mcmote.a(framer-802154.o) (memset)
/opt/local/CodeSourcery/Sourcery_G++_Lite/bin/../lib/gcc/arm-none-eabi/4.3.2/../../../../arm-none-eabi/lib/libc.a(lib_a-strlen.o)
                              contiki-dcg-mcmote.a(sensors.o) (strlen)
/opt/local/CodeSourcery/Sourcery_G++_Lite/bin/../lib/gcc/arm-none-eabi/4.3.2/../../../../arm-none-eabi/lib/libc.a(lib_a-strncmp.o)
                              obj_dcg-mcmote/collect-common.o (strncmp)

Memory Configuration

Name             Origin             Length             Attributes
ram              0x00400000         0x00018000         xrw
*default*        0x00000000         0xffffffff

Linker script and memory map

LOAD udp-sink.co
LOAD obj_dcg-mcmote/collect-common.o
LOAD obj_dcg-mcmote/contiki-mc1322x-main.o
LOAD obj_dcg-mcmote/start.o
LOAD obj_dcg-mcmote/symbols.o
LOAD contiki-dcg-mcmote.a
LOAD contiki-dcg-mcmote.a
START GROUP
LOAD /opt/local/CodeSourcery/Sourcery_G++_Lite/bin/../lib/gcc/arm-none-eabi/4.3.2/libgcc.a
LOAD /opt/local/CodeSourcery/Sourcery_G++_Lite/bin/../lib/gcc/arm-none-eabi/4.3.2/../../../../arm-none-eabi/lib/libc.a
END GROUP
                0x00000400                SYS_STACK_SIZE = 0x400
                0x00000100                IRQ_STACK_SIZE = 0x100
                0x00000100                FIQ_STACK_SIZE = 0x100
                0x00000100                SVC_STACK_SIZE = 0x100
                0x00000010                ABT_STACK_SIZE = 0x10
                0x00000010                UND_STACK_SIZE = 0x10
                0x00001000                HEAP_SIZE = 0x1000
                0x00400000                PROVIDE (__executable_start, 0x400000)
                0x00400000                . = 0x400000

.text           0x00400000     0xc9f0
 *(.start)
 .start         0x00400000      0x8b4 obj_dcg-mcmote/start.o
                0x00400890                _bss_start
                0x00400894                _bss_end
                0x00400000                _start
 *(.irq)
 .irq           0x004008b4      0x1e8 contiki-dcg-mcmote.a(isr.o)
                0x004008b4                irq
 *(.text .stub .text.* .gnu.linkonce.t.*)
 .text          0x00400a9c      0x24c udp-sink.co
                0x00400ab0                .real_start_ofcollect_common_send
                0x00400a9c                collect_common_set_sink
                0x00400cc4                .real_start_ofcollect_common_net_init
                0x00400aa4                .real_start_ofcollect_common_set_sink
                0x00400ab4                collect_common_net_print
                0x00400cbc                collect_common_net_init
                0x00400abc                .real_start_ofcollect_common_net_print
                0x00400aa8                collect_common_send
 .text          0x00400ce8      0x260 obj_dcg-mcmote/collect-common.o
                0x00400ce8                collect_common_set_send_active
                0x00400cf0                .real_start_ofcollect_common_set_send_active
                0x00400eac                .real_start_ofcollect_common_recv
                0x00400ea4                collect_common_recv
 .text          0x00400f48      0x478 obj_dcg-mcmote/contiki-mc1322x-main.o
                0x00400fac                .real_start_ofuip_log
                0x00400fc0                set_rimeaddr
                0x00401114                .real_start_ofmain
                0x00401080                init_lowlevel
                0x00400f80                .real_start_ofoui_to_eui64
                0x00400f78                oui_to_eui64
                0x00400f50                .real_start_ofiab_to_eui64
                0x0040110c                main
                0x00400fa4                uip_log
                0x00400f48                iab_to_eui64
                0x00400fc8                .real_start_ofset_rimeaddr
                0x00401088                .real_start_ofinit_lowlevel
 .text          0x004013c0        0x0 obj_dcg-mcmote/start.o
 .text          0x004013c0        0x0 obj_dcg-mcmote/symbols.o
 .text          0x004013c0       0x64 contiki-dcg-mcmote.a(rimeaddr.o)
                0x00401408                rimeaddr_set_node_addr
                0x004013e4                .real_start_ofrimeaddr_cmp
                0x00401410                .real_start_ofrimeaddr_set_node_addr
                0x004013c0                rimeaddr_copy
                0x004013c8                .real_start_ofrimeaddr_copy
                0x004013dc                rimeaddr_cmp
 .text          0x00401424       0x58 contiki-dcg-mcmote.a(nullmac.o)
 .text          0x0040147c      0x188 contiki-dcg-mcmote.a(nullrdc.o)
 .text          0x00401604       0x24 contiki-dcg-mcmote.a(mac.o)
                0x0040160c                .real_start_ofmac_call_sent_callback
                0x00401604                mac_call_sent_callback
 .text          0x00401628      0x1dc contiki-dcg-mcmote.a(framer-802154.o)
 .text          0x00401804      0x8e8 contiki-dcg-mcmote.a(rpl-dag.o)
                0x00401c30                .real_start_ofrpl_process_parent_event
                0x00401960                rpl_remove_parent
                0x00401ffc                .real_start_ofrpl_free_dag
                0x004018fc                .real_start_ofrpl_repair_dag
                0x004018d4                rpl_find_of
                0x00401fac                rpl_recalculate_ranks
                0x00401ac4                .real_start_ofrpl_alloc_dag
                0x00401a6c                rpl_set_prefix
                0x00401884                .real_start_ofrpl_get_dag
                0x004018f4                rpl_repair_dag
                0x00401ff4                rpl_free_dag
                0x00401abc                rpl_alloc_dag
                0x00401930                .real_start_ofrpl_find_parent
                0x00402038                rpl_set_root
                0x00401b20                .real_start_ofrpl_set_default_route
                0x00401c28                rpl_process_parent_event
                0x00401b68                .real_start_ofrpl_select_parent
                0x00401fb4                .real_start_ofrpl_recalculate_ranks
                0x00401a10                rpl_add_parent
                0x00402040                .real_start_ofrpl_set_root
                0x00401cac                rpl_process_dio
                0x0040187c                rpl_get_dag
                0x00401a74                .real_start_ofrpl_set_prefix
                0x004019e8                rpl_local_repair
                0x00401968                .real_start_ofrpl_remove_parent
                0x00401928                rpl_find_parent
                0x00401a18                .real_start_ofrpl_add_parent
                0x004018dc                .real_start_ofrpl_find_of
                0x00401b60                rpl_select_parent
                0x00401cb4                .real_start_ofrpl_process_dio
                0x004019f0                .real_start_ofrpl_local_repair
                0x00401b18                rpl_set_default_route
 .text          0x004020ec      0x7cc contiki-dcg-mcmote.a(rpl-icmp6.o)
                0x0040213c                dao_ack_output
                0x00402490                .real_start_ofuip_rpl_input
                0x00402864                .real_start_ofdis_output
                0x00402288                .real_start_ofdio_output
                0x00402280                dio_output
                0x00402488                uip_rpl_input
                0x00402178                dao_output
                0x00402144                .real_start_ofdao_ack_output
                0x0040285c                dis_output
                0x00402180                .real_start_ofdao_output
 .text          0x004028b8      0x234 contiki-dcg-mcmote.a(rpl-timers.o)
                0x004029a8                .real_start_ofrpl_reset_periodic_timer
                0x004028c0                .real_start_ofrpl_schedule_dao
                0x0040296c                .real_start_ofrpl_reset_dio_timer
                0x00402964                rpl_reset_dio_timer
                0x004029a0                rpl_reset_periodic_timer
                0x004028b8                rpl_schedule_dao
 .text          0x00402aec       0xec contiki-dcg-mcmote.a(rpl-of-etx.o)
 .text          0x00402bd8      0x2fc contiki-dcg-mcmote.a(process.o)
                0x00402d94                .real_start_ofprocess_post_synch
                0x00402db4                .real_start_ofprocess_start
                0x00402c2c                process_post
                0x00402be0                .real_start_ofprocess_alloc_event
                0x00402c14                process_nevents
                0x00402dac                process_start
                0x00402d8c                process_post_synch
                0x00402e24                .real_start_ofprocess_run
                0x00402ebc                .real_start_ofprocess_exit
                0x00402c7c                process_poll
                0x00402bd8                process_alloc_event
                0x00402eb4                process_exit
                0x00402c1c                .real_start_ofprocess_nevents
                0x00402ca8                process_is_running
                0x00402c84                .real_start_ofprocess_poll
                0x00402bf0                process_init
                0x00402c34                .real_start_ofprocess_post
                0x00402cb0                .real_start_ofprocess_is_running
                0x00402e1c                process_run
                0x00402bf8                .real_start_ofprocess_init
 .text          0x00402ed4       0x40 contiki-dcg-mcmote.a(autostart.o)
                0x00402efc                .real_start_ofautostart_start
                0x00402edc                .real_start_ofautostart_exit
                0x00402ed4                autostart_exit
                0x00402ef4                autostart_start
 .text          0x00402f14      0x124 contiki-dcg-mcmote.a(serial-line.o)
                0x00402fe4                .real_start_ofserial_line_input_byte
                0x00402fdc                serial_line_input_byte
                0x00402fb0                .real_start_ofserial_line_init
                0x00402fa8                serial_line_init
 .text          0x00403038       0xd8 contiki-dcg-mcmote.a(memb.o)
                0x00403040                .real_start_ofmemb_alloc
                0x004030ec                .real_start_ofmemb_init
                0x004030b8                .real_start_ofmemb_inmemb
                0x00403038                memb_alloc
                0x00403070                memb_free
                0x004030e4                memb_init
                0x004030b0                memb_inmemb
                0x00403078                .real_start_ofmemb_free
 .text          0x00403110      0x174 contiki-dcg-mcmote.a(list.o)
                0x00403254                .real_start_oflist_insert
                0x00403198                .real_start_oflist_pop
                0x0040312c                list_copy
                0x004031e4                list_push
                0x00403190                list_pop
                0x00403204                list_add
                0x00403230                list_length
                0x0040313c                list_tail
                0x0040320c                .real_start_oflist_add
                0x00403120                list_head
                0x0040324c                list_insert
                0x0040315c                list_chop
                0x004031b4                .real_start_oflist_remove
                0x00403134                .real_start_oflist_copy
                0x00403238                .real_start_oflist_length
                0x00403118                .real_start_oflist_init
                0x00403164                .real_start_oflist_chop
                0x00403270                list_item_next
                0x00403144                .real_start_oflist_tail
                0x00403110                list_init
                0x00403128                .real_start_oflist_head
                0x004031ec                .real_start_oflist_push
                0x00403278                .real_start_oflist_item_next
                0x004031ac                list_remove
 .text          0x00403284      0x268 contiki-dcg-mcmote.a(etimer.o)
                0x0040328c                .real_start_ofetimer_expired
                0x004032b4                etimer_pending
                0x004034b4                etimer_reset
                0x004032bc                .real_start_ofetimer_pending
                0x0040337c                .real_start_ofetimer_adjust
                0x004034d0                etimer_set
                0x00403374                etimer_adjust
                0x004034bc                .real_start_ofetimer_reset
                0x00403498                etimer_restart
                0x00403398                .real_start_ofetimer_request_poll
                0x004032a8                etimer_start_time
                0x004034d8                .real_start_ofetimer_set
                0x004032cc                etimer_next_expiration_time
                0x00403390                etimer_request_poll
                0x0040329c                .real_start_ofetimer_expiration_time
                0x00403294                etimer_expiration_time
                0x004032b0                .real_start_ofetimer_start_time
                0x00403330                etimer_stop
                0x004034a0                .real_start_ofetimer_restart
                0x00403284                etimer_expired
                0x00403338                .real_start_ofetimer_stop
                0x004032d4                .real_start_ofetimer_next_expiration_time
 .text          0x004034ec      0x214 contiki-dcg-mcmote.a(ctimer.o)
                0x00403630                ctimer_set
                0x004035e8                ctimer_restart
                0x004036d8                .real_start_ofctimer_init
                0x00403688                ctimer_reset
                0x004036d0                ctimer_init
                0x004035f0                .real_start_ofctimer_restart
                0x004035bc                .real_start_ofctimer_stop
                0x00403638                .real_start_ofctimer_set
                0x00403580                .real_start_ofctimer_expired
                0x00403578                ctimer_expired
                0x004035b4                ctimer_stop
                0x00403690                .real_start_ofctimer_reset
 .text          0x00403700       0xb0 contiki-dcg-mcmote.a(stimer.o)
                0x0040379c                .real_start_ofstimer_set
                0x00403714                stimer_elapsed
                0x00403784                .real_start_ofstimer_restart
                0x00403758                .real_start_ofstimer_expired
                0x0040371c                .real_start_ofstimer_elapsed
                0x00403730                stimer_remaining
                0x0040377c                stimer_restart
                0x00403738                .real_start_ofstimer_remaining
                0x00403708                .real_start_ofstimer_reset
                0x00403700                stimer_reset
                0x00403750                stimer_expired
                0x00403794                stimer_set
 .text          0x004037b0       0x2c contiki-dcg-mcmote.a(random.o)
                0x004037b0                random_rand
                0x004037b8                .real_start_ofrandom_rand
                0x004037d0                .real_start_ofrandom_init
                0x004037c8                random_init
 .text          0x004037dc       0xa4 contiki-dcg-mcmote.a(ringbuf.o)
                0x00403860                .real_start_ofringbuf_size
                0x004037dc                ringbuf_init
                0x00403868                ringbuf_elements
                0x004037f4                ringbuf_put
                0x00403828                ringbuf_get
                0x004037fc                .real_start_ofringbuf_put
                0x004037e4                .real_start_ofringbuf_init
                0x00403830                .real_start_ofringbuf_get
                0x00403870                .real_start_ofringbuf_elements
                0x00403858                ringbuf_size
 .text          0x00403880       0xa0 contiki-dcg-mcmote.a(uip-debug.o)
                0x00403880                uip_debug_lladdr_print
                0x004038bc                .real_start_ofuip_debug_ipaddr_print
                0x00403888                .real_start_ofuip_debug_lladdr_print
                0x004038b4                uip_debug_ipaddr_print
 .text          0x00403920      0x394 contiki-dcg-mcmote.a(packetbuf.o)
                0x00403af0                packetbuf_copyto
                0x004039cc                packetbuf_is_reference
                0x00403ac0                packetbuf_attr_copyto
                0x00403b7c                .real_start_ofpacketbuf_compact
                0x00403928                .real_start_ofpacketbuf_clear_hdr
                0x00403c7c                packetbuf_copyfrom
                0x00403934                packetbuf_hdr_remove
                0x00403998                .real_start_ofpacketbuf_dataptr
                0x004039d4                .real_start_ofpacketbuf_is_reference
                0x0040397c                packetbuf_set_datalen
                0x00403a60                .real_start_ofpacketbuf_hdralloc
                0x00403a04                packetbuf_datalen
                0x00403a8c                packetbuf_attr_copyfrom
                0x004039f0                packetbuf_reference_ptr
                0x00403c60                .real_start_ofpacketbuf_reference
                0x00403a94                .real_start_ofpacketbuf_attr_copyfrom
                0x00403920                packetbuf_clear_hdr
                0x00403b44                packetbuf_copyto_hdr
                0x00403a0c                .real_start_ofpacketbuf_datalen
                0x00403af8                .real_start_ofpacketbuf_copyto
                0x00403a34                packetbuf_totlen
                0x00403a3c                .real_start_ofpacketbuf_totlen
                0x00403954                .real_start_ofpacketbuf_hdrreduce
                0x00403c58                packetbuf_reference
                0x00403a58                packetbuf_hdralloc
                0x00403c30                .real_start_ofpacketbuf_clear
                0x00403a18                packetbuf_hdrlen
                0x004039b0                packetbuf_hdrptr
                0x0040393c                .real_start_ofpacketbuf_hdr_remove
                0x00403b4c                .real_start_ofpacketbuf_copyto_hdr
                0x004039b8                .real_start_ofpacketbuf_hdrptr
                0x00403bdc                .real_start_ofpacketbuf_attr_clear
                0x00403ac8                .real_start_ofpacketbuf_attr_copyto
                0x00403984                .real_start_ofpacketbuf_set_datalen
                0x004039f8                .real_start_ofpacketbuf_reference_ptr
                0x0040394c                packetbuf_hdrreduce
                0x00403990                packetbuf_dataptr
                0x00403b74                packetbuf_compact
                0x00403c28                packetbuf_clear
                0x00403c84                .real_start_ofpacketbuf_copyfrom
                0x00403bd4                packetbuf_attr_clear
                0x00403a20                .real_start_ofpacketbuf_hdrlen
 .text          0x00403cb4      0x1cc contiki-dcg-mcmote.a(queuebuf.o)
                0x00403cc0                queuebuf_addr
                0x00403cf4                queuebuf_dataptr
                0x00403cb4                queuebuf_datalen
                0x00403d34                .real_start_ofqueuebuf_to_packetbuf
                0x00403d98                queuebuf_free
                0x00403e5c                queuebuf_init
                0x00403ce8                queuebuf_debug_print
                0x00403cd4                queuebuf_attr
                0x00403df0                queuebuf_new_from_packetbuf
                0x00403dd4                queuebuf_update_attr_from_packetbuf
                0x00403cbc                .real_start_ofqueuebuf_datalen
                0x00403cf0                .real_start_ofqueuebuf_debug_print
                0x00403cdc                .real_start_ofqueuebuf_attr
                0x00403d2c                queuebuf_to_packetbuf
                0x00403da0                .real_start_ofqueuebuf_free
                0x00403e64                .real_start_ofqueuebuf_init
                0x00403cfc                .real_start_ofqueuebuf_dataptr
                0x00403cc8                .real_start_ofqueuebuf_addr
                0x00403ddc                .real_start_ofqueuebuf_update_attr_from_packetbuf
                0x00403df8                .real_start_ofqueuebuf_new_from_packetbuf
 .text          0x00403e80     0x1718 contiki-dcg-mcmote.a(uip6.o)
                0x00403f3c                uip_unlisten
                0x00403e80                uip_add32
                0x00403e88                .real_start_ofuip_add32
                0x004041c4                .real_start_ofuip_icmp6chksum
                0x00404300                uip_process
                0x00404010                .real_start_ofuip_connect
                0x00405454                uip_udp_new
                0x004041f4                uip_htonl
                0x00403f80                uip_listen
                0x00404224                .real_start_ofuip_send
                0x00405528                .real_start_ofuip_init
                0x004041bc                uip_icmp6chksum
                0x00403f44                .real_start_ofuip_unlisten
                0x00403ff0                uip_htons
                0x004041a4                uip_tcpchksum
                0x00404008                uip_connect
                0x004041fc                .real_start_ofuip_htonl
                0x004041ac                .real_start_ofuip_tcpchksum
                0x00404194                .real_start_ofuip_udpchksum
                0x00404308                .real_start_ofuip_process
                0x00403ff8                .real_start_ofuip_htons
                0x004041d4                uip_chksum
                0x00403f88                .real_start_ofuip_listen
                0x0040545c                .real_start_ofuip_udp_new
                0x004041dc                .real_start_ofuip_chksum
                0x00405520                uip_init
                0x0040418c                uip_udpchksum
                0x0040421c                uip_send
 .text          0x00405598      0x644 contiki-dcg-mcmote.a(tcpip.o)
                0x004055d0                tcp_attach
                0x00405b54                .real_start_oftcp_listen
                0x00405b08                udp_broadcast_new
                0x004055e8                udp_attach
                0x00405718                .real_start_oftcpip_input
                0x0040567c                tcpip_uipcall
                0x00405768                .real_start_oftcpip_poll_udp
                0x00405598                tcpip_output
                0x004055c4                .real_start_oftcpip_set_outputfunc
                0x004055a0                .real_start_oftcpip_output
                0x00405b4c                tcp_listen
                0x00405ae8                .real_start_ofudp_new
                0x00405608                .real_start_oftcp_unlisten
                0x00405740                tcpip_poll_tcp
                0x00405748                .real_start_oftcpip_poll_tcp
                0x00405ba8                tcp_connect
                0x00405780                tcpip_ipv6_output
                0x00405600                tcp_unlisten
                0x00405bb0                .real_start_oftcp_connect
                0x00405684                .real_start_oftcpip_uipcall
                0x00405710                tcpip_input
                0x004055d8                .real_start_oftcp_attach
                0x004055bc                tcpip_set_outputfunc
                0x00405788                .real_start_oftcpip_ipv6_output
                0x00405760                tcpip_poll_udp
                0x00405ae0                udp_new
                0x004055f0                .real_start_ofudp_attach
                0x00405b10                .real_start_ofudp_broadcast_new
 .text          0x00405bdc      0x294 contiki-dcg-mcmote.a(uip-icmp6.o)
                0x00405bdc                uip_icmp6_send
                0x00405c74                .real_start_ofuip_icmp6_echo_request_input
                0x00405be4                .real_start_ofuip_icmp6_send
                0x00405d30                .real_start_ofuip_icmp6_error_output
                0x00405d28                uip_icmp6_error_output
                0x00405c6c                uip_icmp6_echo_request_input
 .text          0x00405e70      0x610 contiki-dcg-mcmote.a(uip-nd6.o)
                0x004061a0                .real_start_ofuip_nd6_ns_input
                0x00406098                uip_nd6_ns_output
                0x004060a0                .real_start_ofuip_nd6_ns_output
                0x00405e70                uip_nd6_na_input
                0x00406198                uip_nd6_ns_input
                0x00405e78                .real_start_ofuip_nd6_na_input
 .text          0x00406480      0xe38 contiki-dcg-mcmote.a(sicslowpan.o)
                0x00406b80                sicslowpan_init
                0x00406b88                .real_start_ofsicslowpan_init
 .text          0x004072b8      0x164 contiki-dcg-mcmote.a(neighbor-info.o)
                0x004072f8                .real_start_ofneighbor_info_subscribe
                0x00407358                neighbor_info_packet_sent
                0x004072f0                neighbor_info_subscribe
                0x004072d0                .real_start_ofneighbor_info_get_metric
                0x00407334                .real_start_ofneighbor_info_packet_received
                0x00407360                .real_start_ofneighbor_info_packet_sent
                0x0040732c                neighbor_info_packet_received
                0x004072c8                neighbor_info_get_metric
 .text          0x0040741c      0xd14 contiki-dcg-mcmote.a(uip-ds6.o)
                0x00407a80                .real_start_ofuip_ds6_prefix_lookup
                0x00407820                uip_ds6_route_add
                0x004079ec                uip_ds6_maddr_add
                0x004077c8                .real_start_ofuip_ds6_list_loop
                0x004079cc                .real_start_ofuip_ds6_dad_failed
                0x004074e4                uip_ds6_maddr_rm
                0x00407b60                uip_ds6_nbr_lookup
                0x00407ba8                .real_start_ofuip_ds6_defrt_choose
                0x00407b68                .real_start_ofuip_ds6_nbr_lookup
                0x00407828                .real_start_ofuip_ds6_route_add
                0x00407614                uip_ds6_compute_reachable_time
                0x00407d54                uip_ds6_nbr_rm
                0x0040757c                .real_start_ofuip_ds6_select_src
                0x004076c0                uip_ds6_route_rm_by_nexthop
                0x0040788c                uip_ds6_aaddr_lookup
                0x004074fc                uip_ds6_aaddr_rm
                0x0040761c                .real_start_ofuip_ds6_compute_reachable_time
                0x0040751c                .real_start_ofuip_ds6_route_rm
                0x0040764c                uip_ds6_dad
                0x00407928                .real_start_ofuip_ds6_maddr_lookup
                0x00407cec                .real_start_ofuip_ds6_defrt_add
                0x00408028                .real_start_ofuip_ds6_init
                0x004079f4                .real_start_ofuip_ds6_maddr_add
                0x0040769c                uip_ds6_set_addr_iid
                0x00407654                .real_start_ofuip_ds6_dad
                0x00407434                uip_ds6_prefix_rm
                0x004074ec                .real_start_ofuip_ds6_maddr_rm
                0x0040752c                .real_start_ofget_match_length
                0x00408020                uip_ds6_init
                0x00407d70                uip_ds6_nbr_add
                0x00407514                uip_ds6_route_rm
                0x0040741c                uip_ds6_defrt_rm
                0x00407a48                .real_start_ofuip_ds6_addr_lookup
                0x00407968                .real_start_ofuip_ds6_addr_rm
                0x00407524                get_match_length
                0x004078cc                uip_ds6_aaddr_add
                0x00407504                .real_start_ofuip_ds6_aaddr_rm
                0x00407c08                uip_ds6_addr_add
                0x0040744c                uip_ds6_get_link_local
                0x004074a0                .real_start_ofuip_ds6_get_global
                0x00407b2c                .real_start_ofuip_ds6_defrt_lookup
                0x00407ce4                uip_ds6_defrt_add
                0x0040743c                .real_start_ofuip_ds6_prefix_rm
                0x00407ab4                uip_ds6_prefix_add
                0x004077c0                uip_ds6_list_loop
                0x004076c8                .real_start_ofuip_ds6_route_rm_by_nexthop
                0x00407960                uip_ds6_addr_rm
                0x00407920                uip_ds6_maddr_lookup
                0x00407b24                uip_ds6_defrt_lookup
                0x00407d78                .real_start_ofuip_ds6_nbr_add
                0x00407894                .real_start_ofuip_ds6_aaddr_lookup
                0x00407710                uip_ds6_route_lookup
                0x004079c4                uip_ds6_dad_failed
                0x00407a78                uip_ds6_prefix_lookup
                0x00407454                .real_start_ofuip_ds6_get_link_local
                0x00407ba0                uip_ds6_defrt_choose
                0x00407774                uip_ds6_is_addr_onlink
                0x00407e70                uip_ds6_periodic
                0x00407d5c                .real_start_ofuip_ds6_nbr_rm
                0x004078d4                .real_start_ofuip_ds6_aaddr_add
                0x004076a4                .real_start_ofuip_ds6_set_addr_iid
                0x00407718                .real_start_ofuip_ds6_route_lookup
                0x0040777c                .real_start_ofuip_ds6_is_addr_onlink
                0x00407574                uip_ds6_select_src
                0x00407e78                .real_start_ofuip_ds6_periodic
                0x00407a40                uip_ds6_addr_lookup
                0x00407424                .real_start_ofuip_ds6_defrt_rm
                0x00407c10                .real_start_ofuip_ds6_addr_add
                0x00407abc                .real_start_ofuip_ds6_prefix_add
                0x00407498                uip_ds6_get_global
 .text          0x00408130      0x118 contiki-dcg-mcmote.a(clock.o)
                0x004081b0                .real_start_ofclock_delay
                0x004081cc                .real_start_oftmr0_isr
                0x00408130                clock_init
                0x00408138                .real_start_ofclock_init
                0x00408194                clock_seconds
                0x00408188                .real_start_ofclock_time
                0x004081a8                clock_delay
                0x004081c4                tmr0_isr
                0x00408180                clock_time
                0x0040819c                .real_start_ofclock_seconds
 .text          0x00408248       0xd0 contiki-dcg-mcmote.a(button-sensor.o)
                0x004082d8                kbi4_isr
                0x004082e0                .real_start_ofkbi4_isr
 .text          0x00408318      0x19c contiki-dcg-mcmote.a(sensors.o)
                0x00408434                sensors_find
                0x00408340                sensors_first
                0x0040843c                .real_start_ofsensors_find
                0x00408488                .real_start_ofsensors_changed
                0x00408348                .real_start_ofsensors_first
                0x00408354                sensors_next
                0x00408480                sensors_changed
                0x0040835c                .real_start_ofsensors_next
 .text          0x004084b4       0x3c contiki-dcg-mcmote.a(watchdog.o)
                0x004084c8                .real_start_ofwatchdog_start
                0x004084bc                .real_start_ofwatchdog_init
                0x004084cc                watchdog_periodic
                0x004084c0                watchdog_start
                0x004084d8                watchdog_stop
                0x004084ec                .real_start_ofwatchdog_reboot
                0x004084d4                .real_start_ofwatchdog_periodic
                0x004084e4                watchdog_reboot
                0x004084e0                .real_start_ofwatchdog_stop
                0x004084b4                watchdog_init
 .text          0x004084f0      0x164 contiki-dcg-mcmote.a(contiki-crm.o)
                0x00408530                cal_ring_osc
                0x004085f0                .real_start_ofenable_32khz_xtal
                0x004084f0                sleep
                0x00408538                .real_start_ofcal_ring_osc
                0x004085e8                enable_32khz_xtal
                0x004084f8                .real_start_ofsleep
 .text          0x00408654      0x278 contiki-dcg-mcmote.a(contiki-maca.o)
                0x00408678                .real_start_ofcontiki_maca_channel_clear
                0x004087ec                .real_start_ofcontiki_maca_read
                0x004086e0                .real_start_ofmaca_tx_callback
                0x004086d8                maca_tx_callback
                0x004087e4                contiki_maca_read
                0x004086a8                .real_start_ofcontiki_maca_on_request
                0x004086f0                maca_rx_callback
                0x0040867c                contiki_maca_receiving_packet
                0x004086a0                contiki_maca_on_request
                0x00408748                contiki_maca_transmit
                0x0040866c                .real_start_ofcontiki_maca_init
                0x00408750                .real_start_ofcontiki_maca_transmit
                0x004087b0                .real_start_ofcontiki_maca_send
                0x004086bc                contiki_maca_off_request
                0x00408714                .real_start_ofcontiki_maca_prepare
                0x004086f8                .real_start_ofmaca_rx_callback
                0x00408664                contiki_maca_init
                0x00408690                .real_start_ofcontiki_maca_pending_packet
                0x00408670                contiki_maca_channel_clear
                0x004087a8                contiki_maca_send
                0x00408684                .real_start_ofcontiki_maca_receiving_packet
                0x00408688                contiki_maca_pending_packet
                0x0040870c                contiki_maca_prepare
                0x004086c4                .real_start_ofcontiki_maca_off_request
 .text          0x004088cc       0x74 contiki-dcg-mcmote.a(contiki-misc.o)
                0x004088d4                .real_start_ofraise
                0x00408900                _sbrk
                0x004088ec                rand
                0x004088d8                srand
                0x004088e0                .real_start_ofsrand
                0x00408908                .real_start_of_sbrk
                0x004088f4                .real_start_ofrand
                0x004088cc                raise
 .text          0x00408940      0x100 contiki-dcg-mcmote.a(leds.o)
                0x00408978                leds_toggle
                0x004089f0                .real_start_ofleds_blink
                0x004089b0                leds_on
                0x0040898c                leds_off
                0x004089d4                leds_get
                0x00408958                leds_invert
                0x00408960                .real_start_ofleds_invert
                0x00408994                .real_start_ofleds_off
                0x004089e8                leds_blink
                0x004089dc                .real_start_ofleds_get
                0x00408980                .real_start_ofleds_toggle
                0x00408a28                .real_start_ofleds_init
                0x004089b8                .real_start_ofleds_on
                0x00408a20                leds_init
 .text          0x00408a40       0x14 contiki-dcg-mcmote.a(contiki-uart.o)
                0x00408a48                .real_start_ofuart1_set_input
                0x00408a40                uart1_set_input
 .text          0x00408a54       0x44 contiki-dcg-mcmote.a(dbg-printf.o)
                0x00408a54                printf
                0x00408a5c                .real_start_ofprintf
 .text          0x00408a98      0x7f8 contiki-dcg-mcmote.a(strformat.o)
                0x00409268                format_str
                0x00409270                .real_start_offormat_str
                0x00408b44                format_str_v
                0x00408b4c                .real_start_offormat_str_v
 .text          0x00409290      0xfa8 contiki-dcg-mcmote.a(maca.o)
                0x00409298                .real_start_ofbad_packet_bounds
                0x004098a8                .real_start_ofmaca_off
                0x00409580                .real_start_oftx_packet
                0x00409740                .real_start_ofinsert_at_rx_head
                0x004099c8                set_channel
                0x00409bf0                .real_start_ofradio_init
                0x004094b8                post_tx
                0x00409950                set_power
                0x00409290                bad_packet_bounds
                0x00409be8                radio_init
                0x0040967c                free_tx_head
                0x00409928                set_demodulator_type
                0x004096d8                .real_start_ofadd_to_rx
                0x00409684                .real_start_offree_tx_head
                0x0040946c                .real_start_ofrx_packet
                0x0040a190                Print_Packets
                0x004098d4                .real_start_ofmaca_on
                0x00409864                flyback_init
                0x004097a8                .real_start_ofinit_phy
                0x00409304                free_packet
                0x00409930                .real_start_ofset_demodulator_type
                0x00409b24                .real_start_ofinit_from_flash
                0x0040929c                count_packets
                0x004094c0                .real_start_ofpost_tx
                0x0040990c                .real_start_ofget_ctov
                0x0040960c                .real_start_offree_all_packets
                0x00409f20                decode_status
                0x00409368                get_free_packet
                0x004096d0                add_to_rx
                0x004093bc                post_receive
                0x004098a0                maca_off
                0x00409f58                check_maca
                0x0040986c                .real_start_offlyback_init
                0x00409738                insert_at_rx_head
                0x0040930c                .real_start_offree_packet
                0x00409b1c                init_from_flash
                0x00409a94                exec_init_entry
                0x004099d0                .real_start_ofset_channel
                0x00409604                free_all_packets
                0x004092a4                .real_start_ofcount_packets
                0x00409de0                .real_start_ofmaca_init
                0x00409a9c                .real_start_ofexec_init_entry
                0x004098cc                maca_on
                0x004097a0                init_phy
                0x00409dd8                maca_init
                0x00409e40                ResumeMACASync
                0x00409904                get_ctov
                0x00409808                reset_maca
                0x00409578                tx_packet
                0x00409958                .real_start_ofset_power
                0x00409810                .real_start_ofreset_maca
                0x0040a010                .real_start_ofmaca_isr
                0x0040a008                maca_isr
                0x004093c4                .real_start_ofpost_receive
                0x00409464                rx_packet
                0x004092bc                bound_check
                0x004092c4                .real_start_ofbound_check
                0x00409f60                .real_start_ofcheck_maca
                0x0040a198                .real_start_ofPrint_Packets
                0x00409e48                .real_start_ofResumeMACASync
                0x00409f28                .real_start_ofdecode_status
                0x00409370                .real_start_ofget_free_packet
 .text          0x0040a238        0x0 contiki-dcg-mcmote.a(nvm.o)
 .text          0x0040a238      0x1a4 contiki-dcg-mcmote.a(uart1.o)
                0x0040a2f0                .real_start_ofuart1_putc
                0x0040a384                uart1_getc
                0x0040a38c                .real_start_ofuart1_getc
                0x0040a238                uart1_isr
                0x0040a240                .real_start_ofuart1_isr
                0x0040a2e8                uart1_putc
 .text          0x0040a3dc      0x1f8 contiki-dcg-mcmote.a(default_lowleve)
                0x0040a428                uart1_init
                0x0040a3e4                .real_start_ofdefault_vreg_init
                0x0040a430                .real_start_ofuart1_init
                0x0040a3dc                default_vreg_init
                0x0040a504                uart2_init
                0x0040a50c                .real_start_ofuart2_init
 .text          0x0040a5d4       0x10 contiki-dcg-mcmote.a(isr.o)
                0x0040a5d4                irq_register_timer_handler
 .text          0x0040a5e4      0x2fc contiki-dcg-mcmote.a(frame802154.o)
                0x0040a79c                frame802154_create
                0x0040a604                .real_start_offrame802154_parse
                0x0040a5fc                frame802154_parse
                0x0040a8a8                frame802154_hdrlen
                0x0040a8b0                .real_start_offrame802154_hdrlen
                0x0040a7a4                .real_start_offrame802154_create
 .text          0x0040a8e0      0x1ec contiki-dcg-mcmote.a(rpl.o)
                0x0040aa94                .real_start_ofrpl_purge_routes
                0x0040a9b0                .real_start_ofrpl_ipv6_neighbor_callback
                0x0040aa5c                rpl_remove_routes
                0x0040a9a8                rpl_ipv6_neighbor_callback
                0x0040a9fc                rpl_add_route
                0x0040a8e0                rpl_init
                0x0040a8e8                .real_start_ofrpl_init
                0x0040aa04                .real_start_ofrpl_add_route
                0x0040aa64                .real_start_ofrpl_remove_routes
                0x0040aa8c                rpl_purge_routes
 .text          0x0040aacc       0x8c contiki-dcg-mcmote.a(timer.o)
                0x0040ab2c                .real_start_oftimer_restart
                0x0040ab00                timer_expired
                0x0040aae0                timer_remaining
                0x0040ab08                .real_start_oftimer_expired
                0x0040ab44                .real_start_oftimer_set
                0x0040aad4                .real_start_oftimer_reset
                0x0040ab3c                timer_set
                0x0040ab24                timer_restart
                0x0040aacc                timer_reset
                0x0040aae8                .real_start_oftimer_remaining
 .text          0x0040ab58      0x2f4 contiki-dcg-mcmote.a(neighbor-attr.o)
                0x0040ad34                neighbor_attr_add_neighbor
                0x0040ab74                .real_start_ofneighbor_attr_set_timeout
                0x0040ab58                neighbor_attr_get_timeout
                0x0040adbc                neighbor_attr_set_data
                0x0040abb8                .real_start_ofneighbor_attr_list_neighbors
                0x0040abb0                neighbor_attr_list_neighbors
                0x0040ae14                .real_start_ofneighbor_attr_register
                0x0040acf0                neighbor_attr_has_neighbor
                0x0040ac78                .real_start_ofneighbor_attr_tick
                0x0040acf8                .real_start_ofneighbor_attr_has_neighbor
                0x0040adc4                .real_start_ofneighbor_attr_set_data
                0x0040ac70                neighbor_attr_tick
                0x0040ae0c                neighbor_attr_register
                0x0040ad3c                .real_start_ofneighbor_attr_add_neighbor
                0x0040ab6c                neighbor_attr_set_timeout
                0x0040ab60                .real_start_ofneighbor_attr_get_timeout
                0x0040acbc                .real_start_ofneighbor_attr_remove_neighbor
                0x0040ac8c                neighbor_attr_get_data
                0x0040ac94                .real_start_ofneighbor_attr_get_data
                0x0040acb4                neighbor_attr_remove_neighbor
 .text          0x0040ae4c       0x30 contiki-dcg-mcmote.a(debug-uart.o)
                0x0040ae4c                dbg_send_bytes
                0x0040ae54                .real_start_ofdbg_send_bytes
 .text          0x0040ae7c       0xe0 contiki-dcg-mcmote.a(leds-arch.o)
                0x0040ae7c                leds_arch_init
                0x0040aec8                leds_arch_get
                0x0040af10                .real_start_ofleds_arch_set
                0x0040ae84                .real_start_ofleds_arch_init
                0x0040aed0                .real_start_ofleds_arch_get
                0x0040af08                leds_arch_set
 .text          0x0040af5c      0x1a4 contiki-dcg-mcmote.a(uart2.o)
                0x0040af5c                uart2_isr
                0x0040af64                .real_start_ofuart2_isr
                0x0040b014                .real_start_ofuart2_putc
                0x0040b0a8                uart2_getc
                0x0040b00c                uart2_putc
                0x0040b0b0                .real_start_ofuart2_getc
 .text          0x0040b100      0x114 /opt/local/CodeSourcery/Sourcery_G++_Lite/bin/../lib/gcc/arm-none-eabi/4.3.2/libgcc.a(_udivsi3.o)
                0x0040b100                __udivsi3
                0x0040b100                __aeabi_uidiv
                0x0040b1f4                __aeabi_uidivmod
 .text          0x0040b214      0x148 /opt/local/CodeSourcery/Sourcery_G++_Lite/bin/../lib/gcc/arm-none-eabi/4.3.2/libgcc.a(_divsi3.o)
                0x0040b214                __aeabi_idiv
                0x0040b214                __divsi3
                0x0040b33c                __aeabi_idivmod
 .text          0x0040b35c        0x4 /opt/local/CodeSourcery/Sourcery_G++_Lite/bin/../lib/gcc/arm-none-eabi/4.3.2/libgcc.a(_dvmd_tls.o)
                0x0040b35c                __aeabi_ldiv0
                0x0040b35c                __aeabi_idiv0
 .text          0x0040b360       0x3c /opt/local/CodeSourcery/Sourcery_G++_Lite/bin/../lib/gcc/arm-none-eabi/4.3.2/libgcc.a(_aeabi_uldivmod.o)
                0x0040b360                __aeabi_uldivmod
 .text          0x0040b39c       0x80 /opt/local/CodeSourcery/Sourcery_G++_Lite/bin/../lib/gcc/arm-none-eabi/4.3.2/libgcc.a(bpabi.o)
                0x0040b39c                __gnu_uldivmod_helper
                0x0040b3dc                __gnu_ldivmod_helper
 .text          0x0040b41c      0x56c /opt/local/CodeSourcery/Sourcery_G++_Lite/bin/../lib/gcc/arm-none-eabi/4.3.2/libgcc.a(_divdi3.o)
                0x0040b41c                __divdi3
 .text          0x0040b988      0x4fc /opt/local/CodeSourcery/Sourcery_G++_Lite/bin/../lib/gcc/arm-none-eabi/4.3.2/libgcc.a(_udivdi3.o)
                0x0040b988                __udivdi3
 .text          0x0040be84        0x0 /opt/local/CodeSourcery/Sourcery_G++_Lite/bin/../lib/gcc/arm-none-eabi/4.3.2/libgcc.a(_clz.o)
 .text          0x0040be84        0x0 /opt/local/CodeSourcery/Sourcery_G++_Lite/bin/../lib/gcc/arm-none-eabi/4.3.2/../../../../arm-none-eabi/lib/libc.a(lib_a-ctype_.o)
 .text          0x0040be84       0xac /opt/local/CodeSourcery/Sourcery_G++_Lite/bin/../lib/gcc/arm-none-eabi/4.3.2/../../../../arm-none-eabi/lib/libc.a(lib_a-memcmp.o)
                0x0040be84                memcmp
 .text          0x0040bf30       0xfc /opt/local/CodeSourcery/Sourcery_G++_Lite/bin/../lib/gcc/arm-none-eabi/4.3.2/../../../../arm-none-eabi/lib/libc.a(lib_a-memcpy.o)
                0x0040bf30                memcpy
 .text          0x0040c02c      0x144 /opt/local/CodeSourcery/Sourcery_G++_Lite/bin/../lib/gcc/arm-none-eabi/4.3.2/../../../../arm-none-eabi/lib/libc.a(lib_a-memmove.o)
                0x0040c02c                memmove
 .text          0x0040c170       0xd0 /opt/local/CodeSourcery/Sourcery_G++_Lite/bin/../lib/gcc/arm-none-eabi/4.3.2/../../../../arm-none-eabi/lib/libc.a(lib_a-memset.o)
                0x0040c170                memset
 .text          0x0040c240       0x9c /opt/local/CodeSourcery/Sourcery_G++_Lite/bin/../lib/gcc/arm-none-eabi/4.3.2/../../../../arm-none-eabi/lib/libc.a(lib_a-strlen.o)
                0x0040c240                strlen
 .text          0x0040c2dc      0x144 /opt/local/CodeSourcery/Sourcery_G++_Lite/bin/../lib/gcc/arm-none-eabi/4.3.2/../../../../arm-none-eabi/lib/libc.a(lib_a-strncmp.o)
                0x0040c2dc                strncmp
 *(.gnu.warning)
 *(.glue_7t)
 .glue_7t       0x0040c420        0x0 udp-sink.co
 .glue_7t       0x0040c420        0x0 obj_dcg-mcmote/collect-common.o
 .glue_7t       0x0040c420        0x0 obj_dcg-mcmote/contiki-mc1322x-main.o
 .glue_7t       0x0040c420        0x0 obj_dcg-mcmote/start.o
 .glue_7t       0x0040c420        0x0 obj_dcg-mcmote/symbols.o
 .glue_7t       0x0040c420        0x0 contiki-dcg-mcmote.a(rimeaddr.o)
 .glue_7t       0x0040c420        0x0 contiki-dcg-mcmote.a(nullmac.o)
 .glue_7t       0x0040c420        0x0 contiki-dcg-mcmote.a(nullrdc.o)
 .glue_7t       0x0040c420        0x0 contiki-dcg-mcmote.a(mac.o)
 .glue_7t       0x0040c420        0x0 contiki-dcg-mcmote.a(framer-802154.o)
 .glue_7t       0x0040c420        0x0 contiki-dcg-mcmote.a(rpl-dag.o)
 .glue_7t       0x0040c420        0x0 contiki-dcg-mcmote.a(rpl-icmp6.o)
 .glue_7t       0x0040c420        0x0 contiki-dcg-mcmote.a(rpl-timers.o)
 .glue_7t       0x0040c420        0x0 contiki-dcg-mcmote.a(rpl-of-etx.o)
 .glue_7t       0x0040c420        0x0 contiki-dcg-mcmote.a(process.o)
 .glue_7t       0x0040c420        0x0 contiki-dcg-mcmote.a(autostart.o)
 .glue_7t       0x0040c420        0x0 contiki-dcg-mcmote.a(serial-line.o)
 .glue_7t       0x0040c420        0x0 contiki-dcg-mcmote.a(memb.o)
 .glue_7t       0x0040c420        0x0 contiki-dcg-mcmote.a(list.o)
 .glue_7t       0x0040c420        0x0 contiki-dcg-mcmote.a(etimer.o)
 .glue_7t       0x0040c420        0x0 contiki-dcg-mcmote.a(ctimer.o)
 .glue_7t       0x0040c420        0x0 contiki-dcg-mcmote.a(stimer.o)
 .glue_7t       0x0040c420        0x0 contiki-dcg-mcmote.a(random.o)
 .glue_7t       0x0040c420        0x0 contiki-dcg-mcmote.a(ringbuf.o)
 .glue_7t       0x0040c420        0x0 contiki-dcg-mcmote.a(uip-debug.o)
 .glue_7t       0x0040c420        0x0 contiki-dcg-mcmote.a(packetbuf.o)
 .glue_7t       0x0040c420        0x0 contiki-dcg-mcmote.a(queuebuf.o)
 .glue_7t       0x0040c420        0x0 contiki-dcg-mcmote.a(uip6.o)
 .glue_7t       0x0040c420        0x0 contiki-dcg-mcmote.a(tcpip.o)
 .glue_7t       0x0040c420        0x0 contiki-dcg-mcmote.a(uip-icmp6.o)
 .glue_7t       0x0040c420        0x0 contiki-dcg-mcmote.a(uip-nd6.o)
 .glue_7t       0x0040c420        0x0 contiki-dcg-mcmote.a(sicslowpan.o)
 .glue_7t       0x0040c420        0x0 contiki-dcg-mcmote.a(neighbor-info.o)
 .glue_7t       0x0040c420        0x0 contiki-dcg-mcmote.a(uip-ds6.o)
 .glue_7t       0x0040c420        0x0 contiki-dcg-mcmote.a(clock.o)
 .glue_7t       0x0040c420        0x0 contiki-dcg-mcmote.a(button-sensor.o)
 .glue_7t       0x0040c420        0x0 contiki-dcg-mcmote.a(sensors.o)
 .glue_7t       0x0040c420        0x0 contiki-dcg-mcmote.a(watchdog.o)
 .glue_7t       0x0040c420        0x0 contiki-dcg-mcmote.a(contiki-crm.o)
 .glue_7t       0x0040c420        0x0 contiki-dcg-mcmote.a(contiki-maca.o)
 .glue_7t       0x0040c420        0x0 contiki-dcg-mcmote.a(contiki-misc.o)
 .glue_7t       0x0040c420        0x0 contiki-dcg-mcmote.a(leds.o)
 .glue_7t       0x0040c420        0x0 contiki-dcg-mcmote.a(contiki-uart.o)
 .glue_7t       0x0040c420        0x0 contiki-dcg-mcmote.a(dbg-printf.o)
 .glue_7t       0x0040c420        0x0 contiki-dcg-mcmote.a(strformat.o)
 .glue_7t       0x0040c420        0x0 contiki-dcg-mcmote.a(maca.o)
 .glue_7t       0x0040c420        0x0 contiki-dcg-mcmote.a(nvm.o)
 .glue_7t       0x0040c420        0x0 contiki-dcg-mcmote.a(uart1.o)
 .glue_7t       0x0040c420        0x0 contiki-dcg-mcmote.a(default_lowleve)
 .glue_7t       0x0040c420        0x0 contiki-dcg-mcmote.a(isr.o)
 .glue_7t       0x0040c420        0x0 contiki-dcg-mcmote.a(frame802154.o)
 .glue_7t       0x0040c420        0x0 contiki-dcg-mcmote.a(rpl.o)
 .glue_7t       0x0040c420        0x0 contiki-dcg-mcmote.a(timer.o)
 .glue_7t       0x0040c420        0x0 contiki-dcg-mcmote.a(neighbor-attr.o)
 .glue_7t       0x0040c420        0x0 contiki-dcg-mcmote.a(debug-uart.o)
 .glue_7t       0x0040c420        0x0 contiki-dcg-mcmote.a(leds-arch.o)
 .glue_7t       0x0040c420        0x0 contiki-dcg-mcmote.a(uart2.o)
 .glue_7t       0x0040c420        0x0 /opt/local/CodeSourcery/Sourcery_G++_Lite/bin/../lib/gcc/arm-none-eabi/4.3.2/libgcc.a(_udivsi3.o)
 .glue_7t       0x0040c420        0x0 /opt/local/CodeSourcery/Sourcery_G++_Lite/bin/../lib/gcc/arm-none-eabi/4.3.2/libgcc.a(_divsi3.o)
 .glue_7t       0x0040c420        0x0 /opt/local/CodeSourcery/Sourcery_G++_Lite/bin/../lib/gcc/arm-none-eabi/4.3.2/libgcc.a(_dvmd_tls.o)
 .glue_7t       0x0040c420        0x0 /opt/local/CodeSourcery/Sourcery_G++_Lite/bin/../lib/gcc/arm-none-eabi/4.3.2/libgcc.a(_aeabi_uldivmod.o)
 .glue_7t       0x0040c420        0x0 /opt/local/CodeSourcery/Sourcery_G++_Lite/bin/../lib/gcc/arm-none-eabi/4.3.2/libgcc.a(bpabi.o)
 .glue_7t       0x0040c420        0x0 /opt/local/CodeSourcery/Sourcery_G++_Lite/bin/../lib/gcc/arm-none-eabi/4.3.2/libgcc.a(_divdi3.o)
 .glue_7t       0x0040c420        0x0 /opt/local/CodeSourcery/Sourcery_G++_Lite/bin/../lib/gcc/arm-none-eabi/4.3.2/libgcc.a(_udivdi3.o)
 .glue_7t       0x0040c420        0x0 /opt/local/CodeSourcery/Sourcery_G++_Lite/bin/../lib/gcc/arm-none-eabi/4.3.2/libgcc.a(_clz.o)
 .glue_7t       0x0040c420        0x0 /opt/local/CodeSourcery/Sourcery_G++_Lite/bin/../lib/gcc/arm-none-eabi/4.3.2/../../../../arm-none-eabi/lib/libc.a(lib_a-ctype_.o)
 .glue_7t       0x0040c420        0x0 /opt/local/CodeSourcery/Sourcery_G++_Lite/bin/../lib/gcc/arm-none-eabi/4.3.2/../../../../arm-none-eabi/lib/libc.a(lib_a-memcmp.o)
 .glue_7t       0x0040c420        0x0 /opt/local/CodeSourcery/Sourcery_G++_Lite/bin/../lib/gcc/arm-none-eabi/4.3.2/../../../../arm-none-eabi/lib/libc.a(lib_a-memcpy.o)
 .glue_7t       0x0040c420        0x0 /opt/local/CodeSourcery/Sourcery_G++_Lite/bin/../lib/gcc/arm-none-eabi/4.3.2/../../../../arm-none-eabi/lib/libc.a(lib_a-memmove.o)
 .glue_7t       0x0040c420        0x0 /opt/local/CodeSourcery/Sourcery_G++_Lite/bin/../lib/gcc/arm-none-eabi/4.3.2/../../../../arm-none-eabi/lib/libc.a(lib_a-memset.o)
 .glue_7t       0x0040c420        0x0 /opt/local/CodeSourcery/Sourcery_G++_Lite/bin/../lib/gcc/arm-none-eabi/4.3.2/../../../../arm-none-eabi/lib/libc.a(lib_a-strlen.o)
 .glue_7t       0x0040c420      0x5d0 /opt/local/CodeSourcery/Sourcery_G++_Lite/bin/../lib/gcc/arm-none-eabi/4.3.2/../../../../arm-none-eabi/lib/libc.a(lib_a-strncmp.o)
                0x0040c524                __set_power_change_to_arm
                0x0040c504                __uart1_init_change_to_arm
                0x0040c780                __memb_inmemb_from_thumb
                0x0040c550                __ctimer_init_from_thumb
                0x0040c6b4                __rpl_add_route_change_to_arm
                0x0040c440                __rpl_set_root_from_thumb
                0x0040c48c                __collect_common_net_init_change_to_arm
                0x0040c820                __uip_unlisten_from_thumb
                0x0040c42c                __process_post_change_to_arm
                0x0040c914                __rpl_ipv6_neighbor_callback_change_to_arm
                0x0040c950                __get_free_packet_from_thumb
                0x0040c928                __etimer_pending_from_thumb
                0x0040c590                __rimeaddr_cmp_from_thumb
                0x0040c854                __uip_process_change_to_arm
                0x0040c824                __uip_unlisten_change_to_arm
                0x0040c760                __etimer_stop_from_thumb
                0x0040c58c                __process_run_change_to_arm
                0x0040c7f8                __uip_nd6_na_input_from_thumb
                0x0040c5d0                __memset_from_thumb
                0x0040c54c                __process_start_change_to_arm
                0x0040c4ac                __collect_common_net_print_change_to_arm
                0x0040c4b4                __clock_seconds_change_to_arm
                0x0040c7cc                __memb_init_change_to_arm
                0x0040c72c                __ringbuf_put_change_to_arm
                0x0040c61c                __uip_ds6_defrt_rm_change_to_arm
                0x0040c4ec                __rimeaddr_copy_change_to_arm
                0x0040c624                __list_remove_change_to_arm
                0x0040c4c0                __random_rand_from_thumb
                0x0040c4a8                __collect_common_net_print_from_thumb
                0x0040c97c                __leds_arch_get_change_to_arm
                0x0040c84c                __rpl_init_change_to_arm
                0x0040c734                __process_poll_change_to_arm
                0x0040c808                __uip_icmp6_echo_request_input_from_thumb
                0x0040c9ac                __maca_rx_callback_change_to_arm
                0x0040c81c                __uip_ds6_init_change_to_arm
                0x0040c92c                __etimer_pending_change_to_arm
                0x0040c95c                __tx_packet_change_to_arm
                0x0040c5f4                ____aeabi_uidiv_change_to_arm
                0x0040c958                __tx_packet_from_thumb
                0x0040c5d4                __memset_change_to_arm
                0x0040c5fc                __rpl_reset_dio_timer_change_to_arm
                0x0040c9d8                __uip_ds6_route_rm_from_thumb
                0x0040c6b8                __rpl_find_parent_from_thumb
                0x0040c900                __neighbor_attr_has_neighbor_from_thumb
                0x0040c5b0                __packetbuf_datalen_from_thumb
                0x0040c468                __collect_common_recv_from_thumb
                0x0040c448                __rpl_get_dag_from_thumb
                0x0040c428                __process_post_from_thumb
                0x0040c5e8                __frame802154_create_from_thumb
                0x0040c604                __list_head_change_to_arm
                0x0040c6d8                __uip_ds6_get_link_local_from_thumb
                0x0040c494                __etimer_set_change_to_arm
                0x0040c5b4                __packetbuf_datalen_change_to_arm
                0x0040c858                __uip_ds6_periodic_from_thumb
                0x0040c4d0                __collect_common_send_from_thumb
                0x0040c814                __uip_ds6_select_src_change_to_arm
                0x0040c7dc                __tcpip_uipcall_change_to_arm
                0x0040c5a8                __mac_call_sent_callback_from_thumb
                0x0040c5e0                __packetbuf_hdralloc_from_thumb
                0x0040c708                __process_exit_from_thumb
                0x0040c6fc                __dis_output_change_to_arm
                0x0040c670                __rpl_remove_routes_from_thumb
                0x0040c508                __default_vreg_init_from_thumb
                0x0040c764                __etimer_stop_change_to_arm
                0x0040c714                __process_alloc_event_change_to_arm
                0x0040c7d8                __tcpip_uipcall_from_thumb
                0x0040c6e4                __dio_output_change_to_arm
                0x0040c794                __packetbuf_attr_copyfrom_change_to_arm
                0x0040c94c                __strlen_change_to_arm
                0x0040c65c                __rpl_schedule_dao_change_to_arm
                0x0040c93c                __etimer_request_poll_change_to_arm
                0x0040c7ec                __uip_ds6_is_addr_onlink_change_to_arm
                0x0040c560                ____aeabi_idiv_from_thumb
                0x0040c71c                __ringbuf_get_change_to_arm
                0x0040c7a4                __packetbuf_attr_copyto_change_to_arm
                0x0040c930                __etimer_next_expiration_time_from_thumb
                0x0040c5f8                __rpl_reset_dio_timer_from_thumb
                0x0040c4d8                __memcpy_from_thumb
                0x0040c8fc                __neighbor_attr_add_neighbor_change_to_arm
                0x0040c7f4                __uip_nd6_ns_input_change_to_arm
                0x0040c70c                __process_exit_change_to_arm
                0x0040c5f0                ____aeabi_uidiv_from_thumb
                0x0040c744                __timer_expired_change_to_arm
                0x0040c8d8                __queuebuf_free_from_thumb
                0x0040c67c                __ctimer_stop_change_to_arm
                0x0040c9ec                __uart1_putc_change_to_arm
                0x0040c994                __format_str_v_change_to_arm
                0x0040c640                __list_init_from_thumb
                0x0040c778                __srand_from_thumb
                0x0040c430                __uip_ds6_addr_add_from_thumb
                0x0040c838                __uip_nd6_ns_output_from_thumb
                0x0040c75c                __timer_set_change_to_arm
                0x0040c750                __timer_reset_from_thumb
                0x0040c5c8                __packetbuf_hdrreduce_from_thumb
                0x0040c7a8                __packetbuf_is_reference_from_thumb
                0x0040c480                __serial_line_init_from_thumb
                0x0040c4f8                __rimeaddr_set_node_addr_from_thumb
                0x0040c718                __ringbuf_get_from_thumb
                0x0040c49c                __strncmp_change_to_arm
                0x0040c9c4                __neighbor_info_subscribe_change_to_arm
                0x0040c4fc                __rimeaddr_set_node_addr_change_to_arm
                0x0040c9e4                __list_push_change_to_arm
                0x0040c800                __uip_rpl_input_from_thumb
                0x0040c704                __ctimer_reset_change_to_arm
                0x0040c610                __uip_ds6_defrt_lookup_from_thumb
                0x0040c830                __uip_ds6_defrt_choose_from_thumb
                0x0040c840                __uip_init_from_thumb
                0x0040c668                __list_item_next_from_thumb
                0x0040c8d0                __queuebuf_to_packetbuf_from_thumb
                0x0040c4c8                ____aeabi_uidivmod_from_thumb
                0x0040c804                __uip_rpl_input_change_to_arm
                0x0040c60c                __uip_ds6_route_rm_by_nexthop_change_to_arm
                0x0040c69c                __stimer_set_change_to_arm
                0x0040c53c                __leds_init_change_to_arm
                0x0040c584                __uart1_getc_change_to_arm
                0x0040c7b4                __packetbuf_reference_ptr_change_to_arm
                0x0040c59c                __packetbuf_hdrptr_change_to_arm
                0x0040c8ec                __neighbor_attr_get_data_change_to_arm
                0x0040c618                __uip_ds6_defrt_rm_from_thumb
                0x0040c650                __dao_output_from_thumb
                0x0040c850                __uip_process_from_thumb
                0x0040c55c                __queuebuf_init_change_to_arm
                0x0040c460                __udp_new_from_thumb
                0x0040c574                __autostart_start_change_to_arm
                0x0040c7d0                __uip_icmp6_error_output_from_thumb
                0x0040c578                __check_maca_from_thumb
                0x0040c6f4                __rpl_recalculate_ranks_change_to_arm
                0x0040c45c                __uip_debug_ipaddr_print_change_to_arm
                0x0040c544                __process_init_change_to_arm
                0x0040c88c                __memmove_change_to_arm
                0x0040c960                __rx_packet_from_thumb
                0x0040c7c8                __memb_init_from_thumb
                0x0040c91c                __stimer_expired_change_to_arm
                0x0040c420                __printf_from_thumb
                0x0040c4e0                __leds_blink_from_thumb
                0x0040c648                __uip_ds6_defrt_add_from_thumb
                0x0040c520                __set_power_from_thumb
                0x0040c464                __udp_new_change_to_arm
                0x0040c558                __queuebuf_init_from_thumb
                0x0040c658                __rpl_schedule_dao_from_thumb
                0x0040c7e0                __uip_ds6_maddr_lookup_from_thumb
                0x0040c458                __uip_debug_ipaddr_print_from_thumb
                0x0040c4d4                __collect_common_send_change_to_arm
                0x0040c5cc                __packetbuf_hdrreduce_change_to_arm
                0x0040c728                __ringbuf_put_from_thumb
                0x0040c86c                __uip_listen_change_to_arm
                0x0040c73c                __clock_time_change_to_arm
                0x0040c818                __uip_ds6_init_from_thumb
                0x0040c940                __sensors_changed_from_thumb
                0x0040c43c                __uip_ds6_addr_lookup_change_to_arm
                0x0040c5bc                __packetbuf_dataptr_change_to_arm
                0x0040c894                __uip_htonl_change_to_arm
                0x0040c538                __leds_init_from_thumb
                0x0040c90c                __neighbor_attr_set_data_change_to_arm
                0x0040c8cc                __queuebuf_new_from_packetbuf_change_to_arm
                0x0040c64c                __uip_ds6_defrt_add_change_to_arm
                0x0040c654                __dao_output_change_to_arm
                0x0040c6ac                __uip_ds6_route_lookup_change_to_arm
                0x0040c57c                __check_maca_change_to_arm
                0x0040c8dc                __queuebuf_free_change_to_arm
                0x0040c500                __uart1_init_from_thumb
                0x0040c758                __timer_set_from_thumb
                0x0040c8a4                __neighbor_info_packet_received_change_to_arm
                0x0040c66c                __list_item_next_change_to_arm
                0x0040c8b0                __tcpip_set_outputfunc_from_thumb
                0x0040c9e0                __list_push_from_thumb
                0x0040c7e4                __uip_ds6_maddr_lookup_change_to_arm
                0x0040c954                __get_free_packet_change_to_arm
                0x0040c8c0                __packetbuf_set_datalen_from_thumb
                0x0040c974                __leds_arch_set_change_to_arm
                0x0040c9b8                __rpl_reset_periodic_timer_from_thumb
                0x0040c5ac                __mac_call_sent_callback_change_to_arm
                0x0040c52c                __cal_ring_osc_change_to_arm
                0x0040c82c                __process_post_synch_change_to_arm
                0x0040c8f0                __neighbor_attr_register_from_thumb
                0x0040c528                __cal_ring_osc_from_thumb
                0x0040c6c4                __etimer_expiration_time_change_to_arm
                0x0040c798                __packetbuf_clear_from_thumb
                0x0040c510                __maca_init_from_thumb
                0x0040c998                __dbg_send_bytes_from_thumb
                0x0040c56c                __uip_ds6_set_addr_iid_change_to_arm
                0x0040c4a4                __collect_common_set_sink_change_to_arm
                0x0040c620                __list_remove_from_thumb
                0x0040c6bc                __rpl_find_parent_change_to_arm
                0x0040c490                __etimer_set_from_thumb
                0x0040c570                __autostart_start_from_thumb
                0x0040c470                __rpl_repair_dag_from_thumb
                0x0040c4c4                __random_rand_change_to_arm
                0x0040c87c                __uip_icmp6chksum_change_to_arm
                0x0040c5c4                __frame802154_parse_change_to_arm
                0x0040c934                __etimer_next_expiration_time_change_to_arm
                0x0040c554                __ctimer_init_change_to_arm
                0x0040c454                __rpl_set_prefix_change_to_arm
                0x0040c9cc                __uip_ds6_maddr_add_change_to_arm
                0x0040c938                __etimer_request_poll_from_thumb
                0x0040c7b0                __packetbuf_reference_ptr_from_thumb
                0x0040c784                __memb_inmemb_change_to_arm
                0x0040c888                __memmove_from_thumb
                0x0040c530                __clock_init_from_thumb
                0x0040c8e0                __neighbor_info_packet_sent_from_thumb
                0x0040c880                __tcpip_ipv6_output_from_thumb
                0x0040c828                __process_post_synch_from_thumb
                0x0040c74c                __timer_restart_change_to_arm
                0x0040c51c                __set_channel_change_to_arm
                0x0040c488                __collect_common_net_init_from_thumb
                0x0040c438                __uip_ds6_addr_lookup_from_thumb
                0x0040c77c                __srand_change_to_arm
                0x0040c514                __maca_init_change_to_arm
                0x0040c688                __uip_ds6_nbr_lookup_from_thumb
                0x0040c6d0                __ctimer_set_from_thumb
                0x0040c980                __clock_delay_from_thumb
                0x0040c47c                __uart1_set_input_change_to_arm
                0x0040c968                __free_packet_from_thumb
                0x0040c478                __uart1_set_input_from_thumb
                0x0040c754                __timer_reset_change_to_arm
                0x0040c7d4                __uip_icmp6_error_output_change_to_arm
                0x0040c450                __rpl_set_prefix_from_thumb
                0x0040c580                __uart1_getc_from_thumb
                0x0040c8bc                __watchdog_periodic_change_to_arm
                0x0040c7ac                __packetbuf_is_reference_change_to_arm
                0x0040c944                __sensors_changed_change_to_arm
                0x0040c6b0                __rpl_add_route_from_thumb
                0x0040c50c                __default_vreg_init_change_to_arm
                0x0040c8f8                __neighbor_attr_add_neighbor_from_thumb
                0x0040c634                __memb_alloc_change_to_arm
                0x0040c548                __process_start_from_thumb
                0x0040c474                __rpl_repair_dag_change_to_arm
                0x0040c844                __uip_init_change_to_arm
                0x0040c9a0                ____aeabi_uldivmod_from_thumb
                0x0040c6a0                __rpl_process_dio_from_thumb
                0x0040c9b0                __maca_tx_callback_from_thumb
                0x0040c790                __packetbuf_attr_copyfrom_from_thumb
                0x0040c638                __list_add_from_thumb
                0x0040c83c                __uip_nd6_ns_output_change_to_arm
                0x0040c7e8                __uip_ds6_is_addr_onlink_from_thumb
                0x0040c8e4                __neighbor_info_packet_sent_change_to_arm
                0x0040c6cc                __etimer_expired_change_to_arm
                0x0040c6f0                __rpl_recalculate_ranks_from_thumb
                0x0040c724                __ringbuf_init_change_to_arm
                0x0040c910                __rpl_ipv6_neighbor_callback_from_thumb
                0x0040c874                __uip_connect_change_to_arm
                0x0040c7c4                __packetbuf_copyto_change_to_arm
                0x0040c4cc                ____aeabi_uidivmod_change_to_arm
                0x0040c834                __uip_ds6_defrt_choose_change_to_arm
                0x0040c6a8                __uip_ds6_route_lookup_from_thumb
                0x0040c6e0                __dio_output_from_thumb
                0x0040c614                __uip_ds6_defrt_lookup_change_to_arm
                0x0040c6ec                __rpl_purge_routes_change_to_arm
                0x0040c8c8                __queuebuf_new_from_packetbuf_from_thumb
                0x0040c978                __leds_arch_get_from_thumb
                0x0040c4a0                __collect_common_set_sink_from_thumb
                0x0040c8c4                __packetbuf_set_datalen_change_to_arm
                0x0040c79c                __packetbuf_clear_change_to_arm
                0x0040c890                __uip_htonl_from_thumb
                0x0040c434                __uip_ds6_addr_add_change_to_arm
                0x0040c8b4                __tcpip_set_outputfunc_change_to_arm
                0x0040c870                __uip_connect_from_thumb
                0x0040c690                __uip_ds6_nbr_add_from_thumb
                0x0040c8a0                __neighbor_info_packet_received_from_thumb
                0x0040c8e8                __neighbor_attr_get_data_from_thumb
                0x0040c444                __rpl_set_root_change_to_arm
                0x0040c990                __format_str_v_from_thumb
                0x0040c6a4                __rpl_process_dio_change_to_arm
                0x0040c730                __process_poll_from_thumb
                0x0040c884                __tcpip_ipv6_output_change_to_arm
                0x0040c89c                __uip_ds6_dad_failed_change_to_arm
                0x0040c9d0                __uip_ds6_route_add_from_thumb
                0x0040c62c                __memb_free_change_to_arm
                0x0040c424                __printf_change_to_arm
                0x0040c6e8                __rpl_purge_routes_from_thumb
                0x0040c908                __neighbor_attr_set_data_from_thumb
                0x0040c700                __ctimer_reset_from_thumb
                0x0040c98c                __leds_arch_init_change_to_arm
                0x0040c660                __list_length_from_thumb
                0x0040c594                __rimeaddr_cmp_change_to_arm
                0x0040c9c8                __uip_ds6_maddr_add_from_thumb
                0x0040c63c                __list_add_change_to_arm
                0x0040c694                __uip_ds6_nbr_add_change_to_arm
                0x0040c7b8                __packetbuf_copyto_hdr_from_thumb
                0x0040c6c0                __etimer_expiration_time_from_thumb
                0x0040c5c0                __frame802154_parse_from_thumb
                0x0040c644                __list_init_change_to_arm
                0x0040c918                __stimer_expired_from_thumb
                0x0040c9a8                __maca_rx_callback_from_thumb
                0x0040c4e8                __rimeaddr_copy_from_thumb
                0x0040c8ac                __tcpip_input_change_to_arm
                0x0040c964                __rx_packet_change_to_arm
                0x0040c948                __strlen_from_thumb
                0x0040c630                __memb_alloc_from_thumb
                0x0040c710                __process_alloc_event_from_thumb
                0x0040c8b8                __watchdog_periodic_from_thumb
                0x0040c738                __clock_time_from_thumb
                0x0040c770                __rand_from_thumb
                0x0040c7fc                __uip_nd6_na_input_change_to_arm
                0x0040c5a4                __packetbuf_totlen_change_to_arm
                0x0040c588                __process_run_from_thumb
                0x0040c600                __list_head_from_thumb
                0x0040c4f0                __memcmp_from_thumb
                0x0040c540                __process_init_from_thumb
                0x0040c748                __timer_restart_from_thumb
                0x0040c598                __packetbuf_hdrptr_from_thumb
                0x0040c674                __rpl_remove_routes_change_to_arm
                0x0040c9d4                __uip_ds6_route_add_change_to_arm
                0x0040c518                __set_channel_from_thumb
                0x0040c4f4                __memcmp_change_to_arm
                0x0040c7bc                __packetbuf_copyto_hdr_change_to_arm
                0x0040c788                __packetbuf_copyfrom_from_thumb
                0x0040c5a0                __packetbuf_totlen_from_thumb
                0x0040c484                __serial_line_init_change_to_arm
                0x0040c970                __leds_arch_set_from_thumb
                0x0040c7a0                __packetbuf_attr_copyto_from_thumb
                0x0040c9bc                __rpl_reset_periodic_timer_change_to_arm
                0x0040c878                __uip_icmp6chksum_from_thumb
                0x0040c9a4                ____aeabi_uldivmod_change_to_arm
                0x0040c5d8                __frame802154_hdrlen_from_thumb
                0x0040c5dc                __frame802154_hdrlen_change_to_arm
                0x0040c740                __timer_expired_from_thumb
                0x0040c78c                __packetbuf_copyfrom_change_to_arm
                0x0040c684                __uip_icmp6_send_change_to_arm
                0x0040c984                __clock_delay_change_to_arm
                0x0040c988                __leds_arch_init_from_thumb
                0x0040c848                __rpl_init_from_thumb
                0x0040c9e8                __uart1_putc_from_thumb
                0x0040c6dc                __uip_ds6_get_link_local_change_to_arm
                0x0040c920                __leds_toggle_from_thumb
                0x0040c904                __neighbor_attr_has_neighbor_change_to_arm
                0x0040c68c                __uip_ds6_nbr_lookup_change_to_arm
                0x0040c4dc                __memcpy_change_to_arm
                0x0040c7c0                __packetbuf_copyto_from_thumb
                0x0040c6c8                __etimer_expired_from_thumb
                0x0040c8f4                __neighbor_attr_register_change_to_arm
                0x0040c628                __memb_free_from_thumb
                0x0040c4e4                __leds_blink_change_to_arm
                0x0040c4b0                __clock_seconds_from_thumb
                0x0040c868                __uip_listen_from_thumb
                0x0040c498                __strncmp_from_thumb
                0x0040c9b4                __maca_tx_callback_change_to_arm
                0x0040c6d4                __ctimer_set_change_to_arm
                0x0040c720                __ringbuf_init_from_thumb
                0x0040c5e4                __packetbuf_hdralloc_change_to_arm
                0x0040c810                __uip_ds6_select_src_from_thumb
                0x0040c6f8                __dis_output_from_thumb
                0x0040c608                __uip_ds6_route_rm_by_nexthop_from_thumb
                0x0040c568                __uip_ds6_set_addr_iid_from_thumb
                0x0040c564                ____aeabi_idiv_change_to_arm
                0x0040c85c                __uip_ds6_periodic_change_to_arm
                0x0040c678                __ctimer_stop_from_thumb
                0x0040c96c                __free_packet_change_to_arm
                0x0040c8d4                __queuebuf_to_packetbuf_change_to_arm
                0x0040c864                __uip_udp_new_change_to_arm
                0x0040c698                __stimer_set_from_thumb
                0x0040c4bc                __etimer_reset_change_to_arm
                0x0040c9c0                __neighbor_info_subscribe_from_thumb
                0x0040c99c                __dbg_send_bytes_change_to_arm
                0x0040c9dc                __uip_ds6_route_rm_change_to_arm
                0x0040c7f0                __uip_nd6_ns_input_from_thumb
                0x0040c4b8                __etimer_reset_from_thumb
                0x0040c534                __clock_init_change_to_arm
                0x0040c76c                __etimer_restart_change_to_arm
                0x0040c44c                __rpl_get_dag_change_to_arm
                0x0040c664                __list_length_change_to_arm
                0x0040c5b8                __packetbuf_dataptr_from_thumb
                0x0040c924                __leds_toggle_change_to_arm
                0x0040c898                __uip_ds6_dad_failed_from_thumb
                0x0040c768                __etimer_restart_from_thumb
                0x0040c80c                __uip_icmp6_echo_request_input_change_to_arm
                0x0040c46c                __collect_common_recv_change_to_arm
                0x0040c8a8                __tcpip_input_from_thumb
                0x0040c774                __rand_change_to_arm
                0x0040c860                __uip_udp_new_from_thumb
                0x0040c680                __uip_icmp6_send_from_thumb
                0x0040c5ec                __frame802154_create_change_to_arm
 *(.glue_7)
 .glue_7        0x0040c9f0        0x0 udp-sink.co
 .glue_7        0x0040c9f0        0x0 obj_dcg-mcmote/collect-common.o
 .glue_7        0x0040c9f0        0x0 obj_dcg-mcmote/contiki-mc1322x-main.o
 .glue_7        0x0040c9f0        0x0 obj_dcg-mcmote/start.o
 .glue_7        0x0040c9f0        0x0 obj_dcg-mcmote/symbols.o
 .glue_7        0x0040c9f0        0x0 contiki-dcg-mcmote.a(rimeaddr.o)
 .glue_7        0x0040c9f0        0x0 contiki-dcg-mcmote.a(nullmac.o)
 .glue_7        0x0040c9f0        0x0 contiki-dcg-mcmote.a(nullrdc.o)
 .glue_7        0x0040c9f0        0x0 contiki-dcg-mcmote.a(mac.o)
 .glue_7        0x0040c9f0        0x0 contiki-dcg-mcmote.a(framer-802154.o)
 .glue_7        0x0040c9f0        0x0 contiki-dcg-mcmote.a(rpl-dag.o)
 .glue_7        0x0040c9f0        0x0 contiki-dcg-mcmote.a(rpl-icmp6.o)
 .glue_7        0x0040c9f0        0x0 contiki-dcg-mcmote.a(rpl-timers.o)
 .glue_7        0x0040c9f0        0x0 contiki-dcg-mcmote.a(rpl-of-etx.o)
 .glue_7        0x0040c9f0        0x0 contiki-dcg-mcmote.a(process.o)
 .glue_7        0x0040c9f0        0x0 contiki-dcg-mcmote.a(autostart.o)
 .glue_7        0x0040c9f0        0x0 contiki-dcg-mcmote.a(serial-line.o)
 .glue_7        0x0040c9f0        0x0 contiki-dcg-mcmote.a(memb.o)
 .glue_7        0x0040c9f0        0x0 contiki-dcg-mcmote.a(list.o)
 .glue_7        0x0040c9f0        0x0 contiki-dcg-mcmote.a(etimer.o)
 .glue_7        0x0040c9f0        0x0 contiki-dcg-mcmote.a(ctimer.o)
 .glue_7        0x0040c9f0        0x0 contiki-dcg-mcmote.a(stimer.o)
 .glue_7        0x0040c9f0        0x0 contiki-dcg-mcmote.a(random.o)
 .glue_7        0x0040c9f0        0x0 contiki-dcg-mcmote.a(ringbuf.o)
 .glue_7        0x0040c9f0        0x0 contiki-dcg-mcmote.a(uip-debug.o)
 .glue_7        0x0040c9f0        0x0 contiki-dcg-mcmote.a(packetbuf.o)
 .glue_7        0x0040c9f0        0x0 contiki-dcg-mcmote.a(queuebuf.o)
 .glue_7        0x0040c9f0        0x0 contiki-dcg-mcmote.a(uip6.o)
 .glue_7        0x0040c9f0        0x0 contiki-dcg-mcmote.a(tcpip.o)
 .glue_7        0x0040c9f0        0x0 contiki-dcg-mcmote.a(uip-icmp6.o)
 .glue_7        0x0040c9f0        0x0 contiki-dcg-mcmote.a(uip-nd6.o)
 .glue_7        0x0040c9f0        0x0 contiki-dcg-mcmote.a(sicslowpan.o)
 .glue_7        0x0040c9f0        0x0 contiki-dcg-mcmote.a(neighbor-info.o)
 .glue_7        0x0040c9f0        0x0 contiki-dcg-mcmote.a(uip-ds6.o)
 .glue_7        0x0040c9f0        0x0 contiki-dcg-mcmote.a(clock.o)
 .glue_7        0x0040c9f0        0x0 contiki-dcg-mcmote.a(button-sensor.o)
 .glue_7        0x0040c9f0        0x0 contiki-dcg-mcmote.a(sensors.o)
 .glue_7        0x0040c9f0        0x0 contiki-dcg-mcmote.a(watchdog.o)
 .glue_7        0x0040c9f0        0x0 contiki-dcg-mcmote.a(contiki-crm.o)
 .glue_7        0x0040c9f0        0x0 contiki-dcg-mcmote.a(contiki-maca.o)
 .glue_7        0x0040c9f0        0x0 contiki-dcg-mcmote.a(contiki-misc.o)
 .glue_7        0x0040c9f0        0x0 contiki-dcg-mcmote.a(leds.o)
 .glue_7        0x0040c9f0        0x0 contiki-dcg-mcmote.a(contiki-uart.o)
 .glue_7        0x0040c9f0        0x0 contiki-dcg-mcmote.a(dbg-printf.o)
 .glue_7        0x0040c9f0        0x0 contiki-dcg-mcmote.a(strformat.o)
 .glue_7        0x0040c9f0        0x0 contiki-dcg-mcmote.a(maca.o)
 .glue_7        0x0040c9f0        0x0 contiki-dcg-mcmote.a(nvm.o)
 .glue_7        0x0040c9f0        0x0 contiki-dcg-mcmote.a(uart1.o)
 .glue_7        0x0040c9f0        0x0 contiki-dcg-mcmote.a(default_lowleve)
 .glue_7        0x0040c9f0        0x0 contiki-dcg-mcmote.a(isr.o)
 .glue_7        0x0040c9f0        0x0 contiki-dcg-mcmote.a(frame802154.o)
 .glue_7        0x0040c9f0        0x0 contiki-dcg-mcmote.a(rpl.o)
 .glue_7        0x0040c9f0        0x0 contiki-dcg-mcmote.a(timer.o)
 .glue_7        0x0040c9f0        0x0 contiki-dcg-mcmote.a(neighbor-attr.o)
 .glue_7        0x0040c9f0        0x0 contiki-dcg-mcmote.a(debug-uart.o)
 .glue_7        0x0040c9f0        0x0 contiki-dcg-mcmote.a(leds-arch.o)
 .glue_7        0x0040c9f0        0x0 contiki-dcg-mcmote.a(uart2.o)
 .glue_7        0x0040c9f0        0x0 /opt/local/CodeSourcery/Sourcery_G++_Lite/bin/../lib/gcc/arm-none-eabi/4.3.2/libgcc.a(_udivsi3.o)
 .glue_7        0x0040c9f0        0x0 /opt/local/CodeSourcery/Sourcery_G++_Lite/bin/../lib/gcc/arm-none-eabi/4.3.2/libgcc.a(_divsi3.o)
 .glue_7        0x0040c9f0        0x0 /opt/local/CodeSourcery/Sourcery_G++_Lite/bin/../lib/gcc/arm-none-eabi/4.3.2/libgcc.a(_dvmd_tls.o)
 .glue_7        0x0040c9f0        0x0 /opt/local/CodeSourcery/Sourcery_G++_Lite/bin/../lib/gcc/arm-none-eabi/4.3.2/libgcc.a(_aeabi_uldivmod.o)
 .glue_7        0x0040c9f0        0x0 /opt/local/CodeSourcery/Sourcery_G++_Lite/bin/../lib/gcc/arm-none-eabi/4.3.2/libgcc.a(bpabi.o)
 .glue_7        0x0040c9f0        0x0 /opt/local/CodeSourcery/Sourcery_G++_Lite/bin/../lib/gcc/arm-none-eabi/4.3.2/libgcc.a(_divdi3.o)
 .glue_7        0x0040c9f0        0x0 /opt/local/CodeSourcery/Sourcery_G++_Lite/bin/../lib/gcc/arm-none-eabi/4.3.2/libgcc.a(_udivdi3.o)
 .glue_7        0x0040c9f0        0x0 /opt/local/CodeSourcery/Sourcery_G++_Lite/bin/../lib/gcc/arm-none-eabi/4.3.2/libgcc.a(_clz.o)
 .glue_7        0x0040c9f0        0x0 /opt/local/CodeSourcery/Sourcery_G++_Lite/bin/../lib/gcc/arm-none-eabi/4.3.2/../../../../arm-none-eabi/lib/libc.a(lib_a-ctype_.o)
 .glue_7        0x0040c9f0        0x0 /opt/local/CodeSourcery/Sourcery_G++_Lite/bin/../lib/gcc/arm-none-eabi/4.3.2/../../../../arm-none-eabi/lib/libc.a(lib_a-memcmp.o)
 .glue_7        0x0040c9f0        0x0 /opt/local/CodeSourcery/Sourcery_G++_Lite/bin/../lib/gcc/arm-none-eabi/4.3.2/../../../../arm-none-eabi/lib/libc.a(lib_a-memcpy.o)
 .glue_7        0x0040c9f0        0x0 /opt/local/CodeSourcery/Sourcery_G++_Lite/bin/../lib/gcc/arm-none-eabi/4.3.2/../../../../arm-none-eabi/lib/libc.a(lib_a-memmove.o)
 .glue_7        0x0040c9f0        0x0 /opt/local/CodeSourcery/Sourcery_G++_Lite/bin/../lib/gcc/arm-none-eabi/4.3.2/../../../../arm-none-eabi/lib/libc.a(lib_a-memset.o)
 .glue_7        0x0040c9f0        0x0 /opt/local/CodeSourcery/Sourcery_G++_Lite/bin/../lib/gcc/arm-none-eabi/4.3.2/../../../../arm-none-eabi/lib/libc.a(lib_a-strlen.o)
 .glue_7        0x0040c9f0        0x0 /opt/local/CodeSourcery/Sourcery_G++_Lite/bin/../lib/gcc/arm-none-eabi/4.3.2/../../../../arm-none-eabi/lib/libc.a(lib_a-strncmp.o)
 *(.vfp11_veneer)
 .vfp11_veneer  0x0040c9f0        0x0 udp-sink.co
 .vfp11_veneer  0x0040c9f0        0x0 obj_dcg-mcmote/collect-common.o
 .vfp11_veneer  0x0040c9f0        0x0 obj_dcg-mcmote/contiki-mc1322x-main.o
 .vfp11_veneer  0x0040c9f0        0x0 obj_dcg-mcmote/start.o
 .vfp11_veneer  0x0040c9f0        0x0 obj_dcg-mcmote/symbols.o
 .vfp11_veneer  0x0040c9f0        0x0 contiki-dcg-mcmote.a(rimeaddr.o)
 .vfp11_veneer  0x0040c9f0        0x0 contiki-dcg-mcmote.a(nullmac.o)
 .vfp11_veneer  0x0040c9f0        0x0 contiki-dcg-mcmote.a(nullrdc.o)
 .vfp11_veneer  0x0040c9f0        0x0 contiki-dcg-mcmote.a(mac.o)
 .vfp11_veneer  0x0040c9f0        0x0 contiki-dcg-mcmote.a(framer-802154.o)
 .vfp11_veneer  0x0040c9f0        0x0 contiki-dcg-mcmote.a(rpl-dag.o)
 .vfp11_veneer  0x0040c9f0        0x0 contiki-dcg-mcmote.a(rpl-icmp6.o)
 .vfp11_veneer  0x0040c9f0        0x0 contiki-dcg-mcmote.a(rpl-timers.o)
 .vfp11_veneer  0x0040c9f0        0x0 contiki-dcg-mcmote.a(rpl-of-etx.o)
 .vfp11_veneer  0x0040c9f0        0x0 contiki-dcg-mcmote.a(process.o)
 .vfp11_veneer  0x0040c9f0        0x0 contiki-dcg-mcmote.a(autostart.o)
 .vfp11_veneer  0x0040c9f0        0x0 contiki-dcg-mcmote.a(serial-line.o)
 .vfp11_veneer  0x0040c9f0        0x0 contiki-dcg-mcmote.a(memb.o)
 .vfp11_veneer  0x0040c9f0        0x0 contiki-dcg-mcmote.a(list.o)
 .vfp11_veneer  0x0040c9f0        0x0 contiki-dcg-mcmote.a(etimer.o)
 .vfp11_veneer  0x0040c9f0        0x0 contiki-dcg-mcmote.a(ctimer.o)
 .vfp11_veneer  0x0040c9f0        0x0 contiki-dcg-mcmote.a(stimer.o)
 .vfp11_veneer  0x0040c9f0        0x0 contiki-dcg-mcmote.a(random.o)
 .vfp11_veneer  0x0040c9f0        0x0 contiki-dcg-mcmote.a(ringbuf.o)
 .vfp11_veneer  0x0040c9f0        0x0 contiki-dcg-mcmote.a(uip-debug.o)
 .vfp11_veneer  0x0040c9f0        0x0 contiki-dcg-mcmote.a(packetbuf.o)
 .vfp11_veneer  0x0040c9f0        0x0 contiki-dcg-mcmote.a(queuebuf.o)
 .vfp11_veneer  0x0040c9f0        0x0 contiki-dcg-mcmote.a(uip6.o)
 .vfp11_veneer  0x0040c9f0        0x0 contiki-dcg-mcmote.a(tcpip.o)
 .vfp11_veneer  0x0040c9f0        0x0 contiki-dcg-mcmote.a(uip-icmp6.o)
 .vfp11_veneer  0x0040c9f0        0x0 contiki-dcg-mcmote.a(uip-nd6.o)
 .vfp11_veneer  0x0040c9f0        0x0 contiki-dcg-mcmote.a(sicslowpan.o)
 .vfp11_veneer  0x0040c9f0        0x0 contiki-dcg-mcmote.a(neighbor-info.o)
 .vfp11_veneer  0x0040c9f0        0x0 contiki-dcg-mcmote.a(uip-ds6.o)
 .vfp11_veneer  0x0040c9f0        0x0 contiki-dcg-mcmote.a(clock.o)
 .vfp11_veneer  0x0040c9f0        0x0 contiki-dcg-mcmote.a(button-sensor.o)
 .vfp11_veneer  0x0040c9f0        0x0 contiki-dcg-mcmote.a(sensors.o)
 .vfp11_veneer  0x0040c9f0        0x0 contiki-dcg-mcmote.a(watchdog.o)
 .vfp11_veneer  0x0040c9f0        0x0 contiki-dcg-mcmote.a(contiki-crm.o)
 .vfp11_veneer  0x0040c9f0        0x0 contiki-dcg-mcmote.a(contiki-maca.o)
 .vfp11_veneer  0x0040c9f0        0x0 contiki-dcg-mcmote.a(contiki-misc.o)
 .vfp11_veneer  0x0040c9f0        0x0 contiki-dcg-mcmote.a(leds.o)
 .vfp11_veneer  0x0040c9f0        0x0 contiki-dcg-mcmote.a(contiki-uart.o)
 .vfp11_veneer  0x0040c9f0        0x0 contiki-dcg-mcmote.a(dbg-printf.o)
 .vfp11_veneer  0x0040c9f0        0x0 contiki-dcg-mcmote.a(strformat.o)
 .vfp11_veneer  0x0040c9f0        0x0 contiki-dcg-mcmote.a(maca.o)
 .vfp11_veneer  0x0040c9f0        0x0 contiki-dcg-mcmote.a(nvm.o)
 .vfp11_veneer  0x0040c9f0        0x0 contiki-dcg-mcmote.a(uart1.o)
 .vfp11_veneer  0x0040c9f0        0x0 contiki-dcg-mcmote.a(default_lowleve)
 .vfp11_veneer  0x0040c9f0        0x0 contiki-dcg-mcmote.a(isr.o)
 .vfp11_veneer  0x0040c9f0        0x0 contiki-dcg-mcmote.a(frame802154.o)
 .vfp11_veneer  0x0040c9f0        0x0 contiki-dcg-mcmote.a(rpl.o)
 .vfp11_veneer  0x0040c9f0        0x0 contiki-dcg-mcmote.a(timer.o)
 .vfp11_veneer  0x0040c9f0        0x0 contiki-dcg-mcmote.a(neighbor-attr.o)
 .vfp11_veneer  0x0040c9f0        0x0 contiki-dcg-mcmote.a(debug-uart.o)
 .vfp11_veneer  0x0040c9f0        0x0 contiki-dcg-mcmote.a(leds-arch.o)
 .vfp11_veneer  0x0040c9f0        0x0 contiki-dcg-mcmote.a(uart2.o)
 .vfp11_veneer  0x0040c9f0        0x0 /opt/local/CodeSourcery/Sourcery_G++_Lite/bin/../lib/gcc/arm-none-eabi/4.3.2/libgcc.a(_udivsi3.o)
 .vfp11_veneer  0x0040c9f0        0x0 /opt/local/CodeSourcery/Sourcery_G++_Lite/bin/../lib/gcc/arm-none-eabi/4.3.2/libgcc.a(_divsi3.o)
 .vfp11_veneer  0x0040c9f0        0x0 /opt/local/CodeSourcery/Sourcery_G++_Lite/bin/../lib/gcc/arm-none-eabi/4.3.2/libgcc.a(_dvmd_tls.o)
 .vfp11_veneer  0x0040c9f0        0x0 /opt/local/CodeSourcery/Sourcery_G++_Lite/bin/../lib/gcc/arm-none-eabi/4.3.2/libgcc.a(_aeabi_uldivmod.o)
 .vfp11_veneer  0x0040c9f0        0x0 /opt/local/CodeSourcery/Sourcery_G++_Lite/bin/../lib/gcc/arm-none-eabi/4.3.2/libgcc.a(bpabi.o)
 .vfp11_veneer  0x0040c9f0        0x0 /opt/local/CodeSourcery/Sourcery_G++_Lite/bin/../lib/gcc/arm-none-eabi/4.3.2/libgcc.a(_divdi3.o)
 .vfp11_veneer  0x0040c9f0        0x0 /opt/local/CodeSourcery/Sourcery_G++_Lite/bin/../lib/gcc/arm-none-eabi/4.3.2/libgcc.a(_udivdi3.o)
 .vfp11_veneer  0x0040c9f0        0x0 /opt/local/CodeSourcery/Sourcery_G++_Lite/bin/../lib/gcc/arm-none-eabi/4.3.2/libgcc.a(_clz.o)
 .vfp11_veneer  0x0040c9f0        0x0 /opt/local/CodeSourcery/Sourcery_G++_Lite/bin/../lib/gcc/arm-none-eabi/4.3.2/../../../../arm-none-eabi/lib/libc.a(lib_a-ctype_.o)
 .vfp11_veneer  0x0040c9f0        0x0 /opt/local/CodeSourcery/Sourcery_G++_Lite/bin/../lib/gcc/arm-none-eabi/4.3.2/../../../../arm-none-eabi/lib/libc.a(lib_a-memcmp.o)
 .vfp11_veneer  0x0040c9f0        0x0 /opt/local/CodeSourcery/Sourcery_G++_Lite/bin/../lib/gcc/arm-none-eabi/4.3.2/../../../../arm-none-eabi/lib/libc.a(lib_a-memcpy.o)
 .vfp11_veneer  0x0040c9f0        0x0 /opt/local/CodeSourcery/Sourcery_G++_Lite/bin/../lib/gcc/arm-none-eabi/4.3.2/../../../../arm-none-eabi/lib/libc.a(lib_a-memmove.o)
 .vfp11_veneer  0x0040c9f0        0x0 /opt/local/CodeSourcery/Sourcery_G++_Lite/bin/../lib/gcc/arm-none-eabi/4.3.2/../../../../arm-none-eabi/lib/libc.a(lib_a-memset.o)
 .vfp11_veneer  0x0040c9f0        0x0 /opt/local/CodeSourcery/Sourcery_G++_Lite/bin/../lib/gcc/arm-none-eabi/4.3.2/../../../../arm-none-eabi/lib/libc.a(lib_a-strlen.o)
 .vfp11_veneer  0x0040c9f0        0x0 /opt/local/CodeSourcery/Sourcery_G++_Lite/bin/../lib/gcc/arm-none-eabi/4.3.2/../../../../arm-none-eabi/lib/libc.a(lib_a-strncmp.o)
 *(.v4_bx)
 .v4_bx         0x0040c9f0        0x0 udp-sink.co
 .v4_bx         0x0040c9f0        0x0 obj_dcg-mcmote/collect-common.o
 .v4_bx         0x0040c9f0        0x0 obj_dcg-mcmote/contiki-mc1322x-main.o
 .v4_bx         0x0040c9f0        0x0 obj_dcg-mcmote/start.o
 .v4_bx         0x0040c9f0        0x0 obj_dcg-mcmote/symbols.o
 .v4_bx         0x0040c9f0        0x0 contiki-dcg-mcmote.a(rimeaddr.o)
 .v4_bx         0x0040c9f0        0x0 contiki-dcg-mcmote.a(nullmac.o)
 .v4_bx         0x0040c9f0        0x0 contiki-dcg-mcmote.a(nullrdc.o)
 .v4_bx         0x0040c9f0        0x0 contiki-dcg-mcmote.a(mac.o)
 .v4_bx         0x0040c9f0        0x0 contiki-dcg-mcmote.a(framer-802154.o)
 .v4_bx         0x0040c9f0        0x0 contiki-dcg-mcmote.a(rpl-dag.o)
 .v4_bx         0x0040c9f0        0x0 contiki-dcg-mcmote.a(rpl-icmp6.o)
 .v4_bx         0x0040c9f0        0x0 contiki-dcg-mcmote.a(rpl-timers.o)
 .v4_bx         0x0040c9f0        0x0 contiki-dcg-mcmote.a(rpl-of-etx.o)
 .v4_bx         0x0040c9f0        0x0 contiki-dcg-mcmote.a(process.o)
 .v4_bx         0x0040c9f0        0x0 contiki-dcg-mcmote.a(autostart.o)
 .v4_bx         0x0040c9f0        0x0 contiki-dcg-mcmote.a(serial-line.o)
 .v4_bx         0x0040c9f0        0x0 contiki-dcg-mcmote.a(memb.o)
 .v4_bx         0x0040c9f0        0x0 contiki-dcg-mcmote.a(list.o)
 .v4_bx         0x0040c9f0        0x0 contiki-dcg-mcmote.a(etimer.o)
 .v4_bx         0x0040c9f0        0x0 contiki-dcg-mcmote.a(ctimer.o)
 .v4_bx         0x0040c9f0        0x0 contiki-dcg-mcmote.a(stimer.o)
 .v4_bx         0x0040c9f0        0x0 contiki-dcg-mcmote.a(random.o)
 .v4_bx         0x0040c9f0        0x0 contiki-dcg-mcmote.a(ringbuf.o)
 .v4_bx         0x0040c9f0        0x0 contiki-dcg-mcmote.a(uip-debug.o)
 .v4_bx         0x0040c9f0        0x0 contiki-dcg-mcmote.a(packetbuf.o)
 .v4_bx         0x0040c9f0        0x0 contiki-dcg-mcmote.a(queuebuf.o)
 .v4_bx         0x0040c9f0        0x0 contiki-dcg-mcmote.a(uip6.o)
 .v4_bx         0x0040c9f0        0x0 contiki-dcg-mcmote.a(tcpip.o)
 .v4_bx         0x0040c9f0        0x0 contiki-dcg-mcmote.a(uip-icmp6.o)
 .v4_bx         0x0040c9f0        0x0 contiki-dcg-mcmote.a(uip-nd6.o)
 .v4_bx         0x0040c9f0        0x0 contiki-dcg-mcmote.a(sicslowpan.o)
 .v4_bx         0x0040c9f0        0x0 contiki-dcg-mcmote.a(neighbor-info.o)
 .v4_bx         0x0040c9f0        0x0 contiki-dcg-mcmote.a(uip-ds6.o)
 .v4_bx         0x0040c9f0        0x0 contiki-dcg-mcmote.a(clock.o)
 .v4_bx         0x0040c9f0        0x0 contiki-dcg-mcmote.a(button-sensor.o)
 .v4_bx         0x0040c9f0        0x0 contiki-dcg-mcmote.a(sensors.o)
 .v4_bx         0x0040c9f0        0x0 contiki-dcg-mcmote.a(watchdog.o)
 .v4_bx         0x0040c9f0        0x0 contiki-dcg-mcmote.a(contiki-crm.o)
 .v4_bx         0x0040c9f0        0x0 contiki-dcg-mcmote.a(contiki-maca.o)
 .v4_bx         0x0040c9f0        0x0 contiki-dcg-mcmote.a(contiki-misc.o)
 .v4_bx         0x0040c9f0        0x0 contiki-dcg-mcmote.a(leds.o)
 .v4_bx         0x0040c9f0        0x0 contiki-dcg-mcmote.a(contiki-uart.o)
 .v4_bx         0x0040c9f0        0x0 contiki-dcg-mcmote.a(dbg-printf.o)
 .v4_bx         0x0040c9f0        0x0 contiki-dcg-mcmote.a(strformat.o)
 .v4_bx         0x0040c9f0        0x0 contiki-dcg-mcmote.a(maca.o)
 .v4_bx         0x0040c9f0        0x0 contiki-dcg-mcmote.a(nvm.o)
 .v4_bx         0x0040c9f0        0x0 contiki-dcg-mcmote.a(uart1.o)
 .v4_bx         0x0040c9f0        0x0 contiki-dcg-mcmote.a(default_lowleve)
 .v4_bx         0x0040c9f0        0x0 contiki-dcg-mcmote.a(isr.o)
 .v4_bx         0x0040c9f0        0x0 contiki-dcg-mcmote.a(frame802154.o)
 .v4_bx         0x0040c9f0        0x0 contiki-dcg-mcmote.a(rpl.o)
 .v4_bx         0x0040c9f0        0x0 contiki-dcg-mcmote.a(timer.o)
 .v4_bx         0x0040c9f0        0x0 contiki-dcg-mcmote.a(neighbor-attr.o)
 .v4_bx         0x0040c9f0        0x0 contiki-dcg-mcmote.a(debug-uart.o)
 .v4_bx         0x0040c9f0        0x0 contiki-dcg-mcmote.a(leds-arch.o)
 .v4_bx         0x0040c9f0        0x0 contiki-dcg-mcmote.a(uart2.o)
 .v4_bx         0x0040c9f0        0x0 /opt/local/CodeSourcery/Sourcery_G++_Lite/bin/../lib/gcc/arm-none-eabi/4.3.2/libgcc.a(_udivsi3.o)
 .v4_bx         0x0040c9f0        0x0 /opt/local/CodeSourcery/Sourcery_G++_Lite/bin/../lib/gcc/arm-none-eabi/4.3.2/libgcc.a(_divsi3.o)
 .v4_bx         0x0040c9f0        0x0 /opt/local/CodeSourcery/Sourcery_G++_Lite/bin/../lib/gcc/arm-none-eabi/4.3.2/libgcc.a(_dvmd_tls.o)
 .v4_bx         0x0040c9f0        0x0 /opt/local/CodeSourcery/Sourcery_G++_Lite/bin/../lib/gcc/arm-none-eabi/4.3.2/libgcc.a(_aeabi_uldivmod.o)
 .v4_bx         0x0040c9f0        0x0 /opt/local/CodeSourcery/Sourcery_G++_Lite/bin/../lib/gcc/arm-none-eabi/4.3.2/libgcc.a(bpabi.o)
 .v4_bx         0x0040c9f0        0x0 /opt/local/CodeSourcery/Sourcery_G++_Lite/bin/../lib/gcc/arm-none-eabi/4.3.2/libgcc.a(_divdi3.o)
 .v4_bx         0x0040c9f0        0x0 /opt/local/CodeSourcery/Sourcery_G++_Lite/bin/../lib/gcc/arm-none-eabi/4.3.2/libgcc.a(_udivdi3.o)
 .v4_bx         0x0040c9f0        0x0 /opt/local/CodeSourcery/Sourcery_G++_Lite/bin/../lib/gcc/arm-none-eabi/4.3.2/libgcc.a(_clz.o)
 .v4_bx         0x0040c9f0        0x0 /opt/local/CodeSourcery/Sourcery_G++_Lite/bin/../lib/gcc/arm-none-eabi/4.3.2/../../../../arm-none-eabi/lib/libc.a(lib_a-ctype_.o)
 .v4_bx         0x0040c9f0        0x0 /opt/local/CodeSourcery/Sourcery_G++_Lite/bin/../lib/gcc/arm-none-eabi/4.3.2/../../../../arm-none-eabi/lib/libc.a(lib_a-memcmp.o)
 .v4_bx         0x0040c9f0        0x0 /opt/local/CodeSourcery/Sourcery_G++_Lite/bin/../lib/gcc/arm-none-eabi/4.3.2/../../../../arm-none-eabi/lib/libc.a(lib_a-memcpy.o)
 .v4_bx         0x0040c9f0        0x0 /opt/local/CodeSourcery/Sourcery_G++_Lite/bin/../lib/gcc/arm-none-eabi/4.3.2/../../../../arm-none-eabi/lib/libc.a(lib_a-memmove.o)
 .v4_bx         0x0040c9f0        0x0 /opt/local/CodeSourcery/Sourcery_G++_Lite/bin/../lib/gcc/arm-none-eabi/4.3.2/../../../../arm-none-eabi/lib/libc.a(lib_a-memset.o)
 .v4_bx         0x0040c9f0        0x0 /opt/local/CodeSourcery/Sourcery_G++_Lite/bin/../lib/gcc/arm-none-eabi/4.3.2/../../../../arm-none-eabi/lib/libc.a(lib_a-strlen.o)
 .v4_bx         0x0040c9f0        0x0 /opt/local/CodeSourcery/Sourcery_G++_Lite/bin/../lib/gcc/arm-none-eabi/4.3.2/../../../../arm-none-eabi/lib/libc.a(lib_a-strncmp.o)

.janus_2cc_veneer
                0x0040c9f0        0x0
 .janus_2cc_veneer
                0x0040c9f0        0x0 udp-sink.co
 .janus_2cc_veneer
                0x0040c9f0        0x0 obj_dcg-mcmote/collect-common.o
 .janus_2cc_veneer
                0x0040c9f0        0x0 obj_dcg-mcmote/contiki-mc1322x-main.o
 .janus_2cc_veneer
                0x0040c9f0        0x0 obj_dcg-mcmote/start.o
 .janus_2cc_veneer
                0x0040c9f0        0x0 obj_dcg-mcmote/symbols.o
 .janus_2cc_veneer
                0x0040c9f0        0x0 contiki-dcg-mcmote.a(rimeaddr.o)
 .janus_2cc_veneer
                0x0040c9f0        0x0 contiki-dcg-mcmote.a(nullmac.o)
 .janus_2cc_veneer
                0x0040c9f0        0x0 contiki-dcg-mcmote.a(nullrdc.o)
 .janus_2cc_veneer
                0x0040c9f0        0x0 contiki-dcg-mcmote.a(mac.o)
 .janus_2cc_veneer
                0x0040c9f0        0x0 contiki-dcg-mcmote.a(framer-802154.o)
 .janus_2cc_veneer
                0x0040c9f0        0x0 contiki-dcg-mcmote.a(rpl-dag.o)
 .janus_2cc_veneer
                0x0040c9f0        0x0 contiki-dcg-mcmote.a(rpl-icmp6.o)
 .janus_2cc_veneer
                0x0040c9f0        0x0 contiki-dcg-mcmote.a(rpl-timers.o)
 .janus_2cc_veneer
                0x0040c9f0        0x0 contiki-dcg-mcmote.a(rpl-of-etx.o)
 .janus_2cc_veneer
                0x0040c9f0        0x0 contiki-dcg-mcmote.a(process.o)
 .janus_2cc_veneer
                0x0040c9f0        0x0 contiki-dcg-mcmote.a(autostart.o)
 .janus_2cc_veneer
                0x0040c9f0        0x0 contiki-dcg-mcmote.a(serial-line.o)
 .janus_2cc_veneer
                0x0040c9f0        0x0 contiki-dcg-mcmote.a(memb.o)
 .janus_2cc_veneer
                0x0040c9f0        0x0 contiki-dcg-mcmote.a(list.o)
 .janus_2cc_veneer
                0x0040c9f0        0x0 contiki-dcg-mcmote.a(etimer.o)
 .janus_2cc_veneer
                0x0040c9f0        0x0 contiki-dcg-mcmote.a(ctimer.o)
 .janus_2cc_veneer
                0x0040c9f0        0x0 contiki-dcg-mcmote.a(stimer.o)
 .janus_2cc_veneer
                0x0040c9f0        0x0 contiki-dcg-mcmote.a(random.o)
 .janus_2cc_veneer
                0x0040c9f0        0x0 contiki-dcg-mcmote.a(ringbuf.o)
 .janus_2cc_veneer
                0x0040c9f0        0x0 contiki-dcg-mcmote.a(uip-debug.o)
 .janus_2cc_veneer
                0x0040c9f0        0x0 contiki-dcg-mcmote.a(packetbuf.o)
 .janus_2cc_veneer
                0x0040c9f0        0x0 contiki-dcg-mcmote.a(queuebuf.o)
 .janus_2cc_veneer
                0x0040c9f0        0x0 contiki-dcg-mcmote.a(uip6.o)
 .janus_2cc_veneer
                0x0040c9f0        0x0 contiki-dcg-mcmote.a(tcpip.o)
 .janus_2cc_veneer
                0x0040c9f0        0x0 contiki-dcg-mcmote.a(uip-icmp6.o)
 .janus_2cc_veneer
                0x0040c9f0        0x0 contiki-dcg-mcmote.a(uip-nd6.o)
 .janus_2cc_veneer
                0x0040c9f0        0x0 contiki-dcg-mcmote.a(sicslowpan.o)
 .janus_2cc_veneer
                0x0040c9f0        0x0 contiki-dcg-mcmote.a(neighbor-info.o)
 .janus_2cc_veneer
                0x0040c9f0        0x0 contiki-dcg-mcmote.a(uip-ds6.o)
 .janus_2cc_veneer
                0x0040c9f0        0x0 contiki-dcg-mcmote.a(clock.o)
 .janus_2cc_veneer
                0x0040c9f0        0x0 contiki-dcg-mcmote.a(button-sensor.o)
 .janus_2cc_veneer
                0x0040c9f0        0x0 contiki-dcg-mcmote.a(sensors.o)
 .janus_2cc_veneer
                0x0040c9f0        0x0 contiki-dcg-mcmote.a(watchdog.o)
 .janus_2cc_veneer
                0x0040c9f0        0x0 contiki-dcg-mcmote.a(contiki-crm.o)
 .janus_2cc_veneer
                0x0040c9f0        0x0 contiki-dcg-mcmote.a(contiki-maca.o)
 .janus_2cc_veneer
                0x0040c9f0        0x0 contiki-dcg-mcmote.a(contiki-misc.o)
 .janus_2cc_veneer
                0x0040c9f0        0x0 contiki-dcg-mcmote.a(leds.o)
 .janus_2cc_veneer
                0x0040c9f0        0x0 contiki-dcg-mcmote.a(contiki-uart.o)
 .janus_2cc_veneer
                0x0040c9f0        0x0 contiki-dcg-mcmote.a(dbg-printf.o)
 .janus_2cc_veneer
                0x0040c9f0        0x0 contiki-dcg-mcmote.a(strformat.o)
 .janus_2cc_veneer
                0x0040c9f0        0x0 contiki-dcg-mcmote.a(maca.o)
 .janus_2cc_veneer
                0x0040c9f0        0x0 contiki-dcg-mcmote.a(nvm.o)
 .janus_2cc_veneer
                0x0040c9f0        0x0 contiki-dcg-mcmote.a(uart1.o)
 .janus_2cc_veneer
                0x0040c9f0        0x0 contiki-dcg-mcmote.a(default_lowleve)
 .janus_2cc_veneer
                0x0040c9f0        0x0 contiki-dcg-mcmote.a(isr.o)
 .janus_2cc_veneer
                0x0040c9f0        0x0 contiki-dcg-mcmote.a(frame802154.o)
 .janus_2cc_veneer
                0x0040c9f0        0x0 contiki-dcg-mcmote.a(rpl.o)
 .janus_2cc_veneer
                0x0040c9f0        0x0 contiki-dcg-mcmote.a(timer.o)
 .janus_2cc_veneer
                0x0040c9f0        0x0 contiki-dcg-mcmote.a(neighbor-attr.o)
 .janus_2cc_veneer
                0x0040c9f0        0x0 contiki-dcg-mcmote.a(debug-uart.o)
 .janus_2cc_veneer
                0x0040c9f0        0x0 contiki-dcg-mcmote.a(leds-arch.o)
 .janus_2cc_veneer
                0x0040c9f0        0x0 contiki-dcg-mcmote.a(uart2.o)
 .janus_2cc_veneer
                0x0040c9f0        0x0 /opt/local/CodeSourcery/Sourcery_G++_Lite/bin/../lib/gcc/arm-none-eabi/4.3.2/libgcc.a(_udivsi3.o)
 .janus_2cc_veneer
                0x0040c9f0        0x0 /opt/local/CodeSourcery/Sourcery_G++_Lite/bin/../lib/gcc/arm-none-eabi/4.3.2/libgcc.a(_divsi3.o)
 .janus_2cc_veneer
                0x0040c9f0        0x0 /opt/local/CodeSourcery/Sourcery_G++_Lite/bin/../lib/gcc/arm-none-eabi/4.3.2/libgcc.a(_dvmd_tls.o)
 .janus_2cc_veneer
                0x0040c9f0        0x0 /opt/local/CodeSourcery/Sourcery_G++_Lite/bin/../lib/gcc/arm-none-eabi/4.3.2/libgcc.a(_aeabi_uldivmod.o)
 .janus_2cc_veneer
                0x0040c9f0        0x0 /opt/local/CodeSourcery/Sourcery_G++_Lite/bin/../lib/gcc/arm-none-eabi/4.3.2/libgcc.a(bpabi.o)
 .janus_2cc_veneer
                0x0040c9f0        0x0 /opt/local/CodeSourcery/Sourcery_G++_Lite/bin/../lib/gcc/arm-none-eabi/4.3.2/libgcc.a(_divdi3.o)
 .janus_2cc_veneer
                0x0040c9f0        0x0 /opt/local/CodeSourcery/Sourcery_G++_Lite/bin/../lib/gcc/arm-none-eabi/4.3.2/libgcc.a(_udivdi3.o)
 .janus_2cc_veneer
                0x0040c9f0        0x0 /opt/local/CodeSourcery/Sourcery_G++_Lite/bin/../lib/gcc/arm-none-eabi/4.3.2/libgcc.a(_clz.o)
 .janus_2cc_veneer
                0x0040c9f0        0x0 /opt/local/CodeSourcery/Sourcery_G++_Lite/bin/../lib/gcc/arm-none-eabi/4.3.2/../../../../arm-none-eabi/lib/libc.a(lib_a-ctype_.o)
 .janus_2cc_veneer
                0x0040c9f0        0x0 /opt/local/CodeSourcery/Sourcery_G++_Lite/bin/../lib/gcc/arm-none-eabi/4.3.2/../../../../arm-none-eabi/lib/libc.a(lib_a-memcmp.o)
 .janus_2cc_veneer
                0x0040c9f0        0x0 /opt/local/CodeSourcery/Sourcery_G++_Lite/bin/../lib/gcc/arm-none-eabi/4.3.2/../../../../arm-none-eabi/lib/libc.a(lib_a-memcpy.o)
 .janus_2cc_veneer
                0x0040c9f0        0x0 /opt/local/CodeSourcery/Sourcery_G++_Lite/bin/../lib/gcc/arm-none-eabi/4.3.2/../../../../arm-none-eabi/lib/libc.a(lib_a-memmove.o)
 .janus_2cc_veneer
                0x0040c9f0        0x0 /opt/local/CodeSourcery/Sourcery_G++_Lite/bin/../lib/gcc/arm-none-eabi/4.3.2/../../../../arm-none-eabi/lib/libc.a(lib_a-memset.o)
 .janus_2cc_veneer
                0x0040c9f0        0x0 /opt/local/CodeSourcery/Sourcery_G++_Lite/bin/../lib/gcc/arm-none-eabi/4.3.2/../../../../arm-none-eabi/lib/libc.a(lib_a-strlen.o)
 .janus_2cc_veneer
                0x0040c9f0        0x0 /opt/local/CodeSourcery/Sourcery_G++_Lite/bin/../lib/gcc/arm-none-eabi/4.3.2/../../../../arm-none-eabi/lib/libc.a(lib_a-strncmp.o)

.interp
 *(.interp)

.note.gnu.build-id
 *(.note.gnu.build-id)

.hash
 *(.hash)

.gnu.hash
 *(.gnu.hash)

.dynsym
 *(.dynsym)

.dynstr
 *(.dynstr)

.gnu.version
 *(.gnu.version)

.gnu.version_d
 *(.gnu.version_d)

.gnu.version_r
 *(.gnu.version_r)

.rel.dyn
 *(.rel.init)
 *(.rel.text .rel.text.* .rel.gnu.linkonce.t.*)
 *(.rel.fini)
 *(.rel.rodata .rel.rodata.* .rel.gnu.linkonce.r.*)
 *(.rel.data.rel.ro* .rel.gnu.linkonce.d.rel.ro.*)
 *(.rel.data .rel.data.* .rel.gnu.linkonce.d.*)
 *(.rel.tdata .rel.tdata.* .rel.gnu.linkonce.td.*)
 *(.rel.tbss .rel.tbss.* .rel.gnu.linkonce.tb.*)
 *(.rel.ctors)
 *(.rel.dtors)
 *(.rel.got)
 *(.rel.bss .rel.bss.* .rel.gnu.linkonce.b.*)

.rela.dyn
 *(.rela.init)
 *(.rela.text .rela.text.* .rela.gnu.linkonce.t.*)
 *(.rela.fini)
 *(.rela.rodata .rela.rodata.* .rela.gnu.linkonce.r.*)
 *(.rela.data .rela.data.* .rela.gnu.linkonce.d.*)
 *(.rela.tdata .rela.tdata.* .rela.gnu.linkonce.td.*)
 *(.rela.tbss .rela.tbss.* .rela.gnu.linkonce.tb.*)
 *(.rela.ctors)
 *(.rela.dtors)
 *(.rela.got)
 *(.rela.bss .rela.bss.* .rela.gnu.linkonce.b.*)

.rel.plt
 *(.rel.plt)

.rela.plt
 *(.rela.plt)

.init
 *(.init)

.plt
 *(.plt)

.fini
 *(.fini)
                0x0040c9f0                PROVIDE (__etext, .)
                0x0040c9f0                PROVIDE (_etext, .)
                0x0040c9f0                PROVIDE (etext, .)

.rodata         0x0040c9f0      0xac1
 *(.rodata .rodata.* .gnu.linkonce.r.*)
 .rodata        0x0040c9f0        0xc udp-sink.co
                0x0040c9f0                autostart_processes
 .rodata.str1.1
                0x0040c9fc       0xe6 udp-sink.co
                                 0xe8 (size before relaxing)
 .rodata.str1.1
                0x0040cae2       0xc7 obj_dcg-mcmote/collect-common.o
                                 0xd0 (size before relaxing)
 .rodata        0x0040cba9        0x8 obj_dcg-mcmote/contiki-mc1322x-main.o
                0x0040cba9                addr_ff
 .rodata.str1.1
                0x0040cbb1       0xc3 obj_dcg-mcmote/contiki-mc1322x-main.o
                                 0xc5 (size before relaxing)
 .rodata        0x0040cc74        0xc obj_dcg-mcmote/symbols.o
                0x0040cc78                symbols
                0x0040cc74                symbols_nelts
 .rodata        0x0040cc80        0x8 contiki-dcg-mcmote.a(rimeaddr.o)
                0x0040cc80                rimeaddr_null
 .rodata        0x0040cc88       0x1c contiki-dcg-mcmote.a(nullmac.o)
                0x0040cc88                nullmac_driver
 .rodata.str1.1
                0x0040cca4        0x8 contiki-dcg-mcmote.a(nullmac.o)
 .rodata        0x0040ccac       0x1c contiki-dcg-mcmote.a(nullrdc.o)
                0x0040ccac                nullrdc_driver
 .rodata.str1.1
                0x0040ccc8        0x8 contiki-dcg-mcmote.a(nullrdc.o)
 .rodata        0x0040ccd0        0x8 contiki-dcg-mcmote.a(framer-802154.o)
                0x0040ccd0                framer_802154
 .rodata.str1.1
                0x0040ccd8        0xe contiki-dcg-mcmote.a(serial-line.o)
 .rodata.str1.1
                0x0040cce6        0xc contiki-dcg-mcmote.a(etimer.o)
 .rodata.str1.1
                0x0040ccf2        0xf contiki-dcg-mcmote.a(ctimer.o)
 .rodata.str1.1
                0x0040cd01        0xb contiki-dcg-mcmote.a(uip-debug.o)
                                  0xd (size before relaxing)
 .rodata        0x0040cd0c        0x4 contiki-dcg-mcmote.a(packetbuf.o)
 .rodata        0x0040cd10       0x40 contiki-dcg-mcmote.a(uip6.o)
 .rodata.str1.1
                0x0040cd50        0xd contiki-dcg-mcmote.a(tcpip.o)
 *fill*         0x0040cd5d        0x3 00
 .rodata        0x0040cd60       0x20 contiki-dcg-mcmote.a(sicslowpan.o)
                0x0040cd6a                unc_llconf
                0x0040cd64                unc_ctxconf
                0x0040cd68                llprefix
                0x0040cd70                unc_mxconf
                0x0040cd74                sicslowpan_driver
 .rodata.str1.1
                0x0040cd80        0xb contiki-dcg-mcmote.a(sicslowpan.o)
 *fill*         0x0040cd8b        0x1 00
 .rodata        0x0040cd8c       0x10 contiki-dcg-mcmote.a(button-sensor.o)
                0x0040cd8c                button_sensor
 .rodata.str1.1
                0x0040cd9c        0x7 contiki-dcg-mcmote.a(button-sensor.o)
 .rodata.str1.1
                0x0040cda3        0x8 contiki-dcg-mcmote.a(sensors.o)
 .rodata.str1.1
                0x0040cdab       0xd1 contiki-dcg-mcmote.a(contiki-crm.o)
 .rodata        0x0040ce7c       0x28 contiki-dcg-mcmote.a(contiki-maca.o)
                0x0040ce7c                contiki_maca_driver
 .rodata.str1.1
                0x0040cea4        0xd contiki-dcg-mcmote.a(contiki-maca.o)
 .rodata        0x0040ceb1       0x20 contiki-dcg-mcmote.a(strformat.o)
 .rodata.str1.1
                0x0040ced1       0x35 contiki-dcg-mcmote.a(strformat.o)
                                 0x37 (size before relaxing)
 *fill*         0x0040cf06        0x2 00
 .rodata        0x0040cf08      0x338 contiki-dcg-mcmote.a(maca.o)
                0x0040d0d8                data_cal5
                0x0040d028                VCODivI
                0x0040cf90                PAVAL
                0x0040d038                VCODivF
                0x0040d0b8                data_cal3_seq2
                0x0040d0c0                addr_cal3_seq3
                0x0040d098                addr_cal3_seq1
                0x0040d194                data_reg_rep
                0x0040d088                addr_seq2
                0x0040d0c4                data_cal3_seq3
                0x0040d0c8                addr_cal5
                0x0040d080                data_seq1
                0x0040d0a4                data_cal3_seq1
                0x0040d090                data_seq2
                0x0040cf44                PSMVAL
                0x0040d0b0                addr_cal3_seq2
                0x0040cfdc                AIMVAL
                0x0040d0e8                addr_reg_rep
                0x0040d078                addr_seq1
 .rodata.str1.1
                0x0040d240       0x70 contiki-dcg-mcmote.a(maca.o)
                                 0x73 (size before relaxing)
 .rodata        0x0040d2b0      0x100 /opt/local/CodeSourcery/Sourcery_G++_Lite/bin/../lib/gcc/arm-none-eabi/4.3.2/libgcc.a(_clz.o)
                0x0040d2b0                __clz_tab
 .rodata        0x0040d3b0      0x101 /opt/local/CodeSourcery/Sourcery_G++_Lite/bin/../lib/gcc/arm-none-eabi/4.3.2/../../../../arm-none-eabi/lib/libc.a(lib_a-ctype_.o)
                0x0040d3b0                _ctype_

.ARM.extab      0x0040d4b1        0x0
 .ARM.extab     0x0040d4b1        0x0 /opt/local/CodeSourcery/Sourcery_G++_Lite/bin/../lib/gcc/arm-none-eabi/4.3.2/libgcc.a(_divdi3.o)
 .ARM.extab     0x0040d4b1        0x0 /opt/local/CodeSourcery/Sourcery_G++_Lite/bin/../lib/gcc/arm-none-eabi/4.3.2/libgcc.a(_udivdi3.o)

.ARM.exidx      0x0040d4b4       0x10
 .ARM.exidx     0x0040d4b4        0x8 /opt/local/CodeSourcery/Sourcery_G++_Lite/bin/../lib/gcc/arm-none-eabi/4.3.2/libgcc.a(_divdi3.o)
 .ARM.exidx     0x0040d4bc        0x8 /opt/local/CodeSourcery/Sourcery_G++_Lite/bin/../lib/gcc/arm-none-eabi/4.3.2/libgcc.a(_udivdi3.o)

.rodata1
 *(.rodata1)

.eh_frame_hdr
 *(.eh_frame_hdr)

.eh_frame
 *(.eh_frame)

.gcc_except_table
 *(.gcc_except_table .gcc_except_table.*)
                0x0040d4c4                . = ALIGN (0x4)
                0x0040d4c4                . = (0x4 DATA_SEGMENT_ALIGN 0x4)

.eh_frame
 *(.eh_frame)

.gcc_except_table
 *(.gcc_except_table .gcc_except_table.*)

.tdata
 *(.tdata .tdata.* .gnu.linkonce.td.*)

.tbss
 *(.tbss .tbss.* .gnu.linkonce.tb.*)
 *(.tcommon)

.preinit_array  0x0040d4c4        0x0
                0x0040d4c4                PROVIDE (__preinit_array_start, .)
 *(.preinit_array)
                0x0040d4c4                PROVIDE (__preinit_array_end, .)

.init_array     0x0040d4c4        0x0
                0x0040d4c4                PROVIDE (__init_array_start, .)
 *(SORT(.init_array.*))
 *(.init_array)
                0x0040d4c4                PROVIDE (__init_array_end, .)

.fini_array     0x0040d4c4        0x0
                0x0040d4c4                PROVIDE (__fini_array_start, .)
 *(.fini_array)
 *(SORT(.fini_array.*))
                0x0040d4c4                PROVIDE (__fini_array_end, .)

.ctors
 *crtbegin.o(.ctors)
 *crtbegin?.o(.ctors)
 *(EXCLUDE_FILE(*crtend?.o *crtend.o) .ctors)
 *(SORT(.ctors.*))
 *(.ctors)

.dtors
 *crtbegin.o(.dtors)
 *crtbegin?.o(.dtors)
 *(EXCLUDE_FILE(*crtend?.o *crtend.o) .dtors)
 *(SORT(.dtors.*))
 *(.dtors)

.jcr
 *(.jcr)

.data.rel.ro
 *(.data.rel.ro.local* .gnu.linkonce.d.rel.ro.local.*)
 *(.data.rel.ro* .gnu.linkonce.d.rel.ro.*)

.dynamic
 *(.dynamic)
                0x0040d4c4                . = (. DATA_SEGMENT_RELRO_END 0x0)

.got
 *(.got.plt)
 *(.got)

.data           0x0040d4c4      0x130
                0x0040d4c4                __data_start = .
 *(.data .data.* .gnu.linkonce.d.*)
 .data          0x0040d4c4       0x10 udp-sink.co
                0x0040d4c4                udp_server_process
 .data          0x0040d4d4       0x14 obj_dcg-mcmote/collect-common.o
                0x0040d4d8                collect_common_process
 .data          0x0040d4e8        0x8 obj_dcg-mcmote/contiki-mc1322x-main.o
                0x0040d4e8                sensors
 .data          0x0040d4f0        0x0 obj_dcg-mcmote/start.o
 .data          0x0040d4f0        0x0 obj_dcg-mcmote/symbols.o
 .data          0x0040d4f0        0x0 contiki-dcg-mcmote.a(rimeaddr.o)
 .data          0x0040d4f0        0x0 contiki-dcg-mcmote.a(nullmac.o)
 .data          0x0040d4f0        0x0 contiki-dcg-mcmote.a(nullrdc.o)
 .data          0x0040d4f0        0x0 contiki-dcg-mcmote.a(mac.o)
 .data          0x0040d4f0        0x0 contiki-dcg-mcmote.a(framer-802154.o)
 .data          0x0040d4f0        0xc contiki-dcg-mcmote.a(rpl-dag.o)
 .data          0x0040d4fc        0x0 contiki-dcg-mcmote.a(rpl-icmp6.o)
 .data          0x0040d4fc        0x0 contiki-dcg-mcmote.a(rpl-timers.o)
 .data          0x0040d4fc       0x18 contiki-dcg-mcmote.a(rpl-of-etx.o)
                0x0040d4fc                rpl_of_etx
 .data          0x0040d514        0x0 contiki-dcg-mcmote.a(process.o)
 .data          0x0040d514        0x0 contiki-dcg-mcmote.a(autostart.o)
 .data          0x0040d514       0x10 contiki-dcg-mcmote.a(serial-line.o)
                0x0040d514                serial_line_process
 .data          0x0040d524        0x0 contiki-dcg-mcmote.a(memb.o)
 .data          0x0040d524        0x0 contiki-dcg-mcmote.a(list.o)
 .data          0x0040d524       0x10 contiki-dcg-mcmote.a(etimer.o)
                0x0040d524                etimer_process
 .data          0x0040d534       0x10 contiki-dcg-mcmote.a(ctimer.o)
                0x0040d534                ctimer_process
 .data          0x0040d544        0x0 contiki-dcg-mcmote.a(stimer.o)
 .data          0x0040d544        0x0 contiki-dcg-mcmote.a(random.o)
 .data          0x0040d544        0x0 contiki-dcg-mcmote.a(ringbuf.o)
 .data          0x0040d544        0x0 contiki-dcg-mcmote.a(uip-debug.o)
 .data          0x0040d544        0x0 contiki-dcg-mcmote.a(packetbuf.o)
 .data          0x0040d544       0x18 contiki-dcg-mcmote.a(queuebuf.o)
 .data          0x0040d55c        0x0 contiki-dcg-mcmote.a(uip6.o)
 .data          0x0040d55c       0x10 contiki-dcg-mcmote.a(tcpip.o)
                0x0040d55c                tcpip_process
 .data          0x0040d56c        0x0 contiki-dcg-mcmote.a(uip-icmp6.o)
 .data          0x0040d56c        0x0 contiki-dcg-mcmote.a(uip-nd6.o)
 .data          0x0040d56c        0x0 contiki-dcg-mcmote.a(sicslowpan.o)
 .data          0x0040d56c       0x10 contiki-dcg-mcmote.a(neighbor-info.o)
 .data          0x0040d57c        0x0 contiki-dcg-mcmote.a(uip-ds6.o)
 .data          0x0040d57c        0x0 contiki-dcg-mcmote.a(clock.o)
 .data          0x0040d57c        0x0 contiki-dcg-mcmote.a(button-sensor.o)
 .data          0x0040d57c       0x10 contiki-dcg-mcmote.a(sensors.o)
                0x0040d57c                sensors_process
 .data          0x0040d58c        0x0 contiki-dcg-mcmote.a(watchdog.o)
 .data          0x0040d58c        0x0 contiki-dcg-mcmote.a(contiki-crm.o)
 .data          0x0040d58c       0x10 contiki-dcg-mcmote.a(contiki-maca.o)
                0x0040d58c                contiki_maca_process
 .data          0x0040d59c        0x0 contiki-dcg-mcmote.a(contiki-misc.o)
 .data          0x0040d59c        0x0 contiki-dcg-mcmote.a(leds.o)
 .data          0x0040d59c        0x0 contiki-dcg-mcmote.a(contiki-uart.o)
 .data          0x0040d59c        0x8 contiki-dcg-mcmote.a(dbg-printf.o)
 .data          0x0040d5a4        0x0 contiki-dcg-mcmote.a(strformat.o)
 .data          0x0040d5a4       0x18 contiki-dcg-mcmote.a(maca.o)
                0x0040d5b8                get_lqi
                0x0040d5a5                ctov
                0x0040d5a4                prm_mode
 .data          0x0040d5bc       0x14 contiki-dcg-mcmote.a(nvm.o)
                0x0040d5c8                nvm_erase
                0x0040d5cc                nvm_setsvar
                0x0040d5c0                nvm_read
                0x0040d5c4                nvm_write
                0x0040d5bc                nvm_detect
 .data          0x0040d5d0        0x0 contiki-dcg-mcmote.a(uart1.o)
 .data          0x0040d5d0        0x0 contiki-dcg-mcmote.a(default_lowleve)
 .data          0x0040d5d0       0x10 contiki-dcg-mcmote.a(isr.o)
 .data          0x0040d5e0        0x0 contiki-dcg-mcmote.a(frame802154.o)
 .data          0x0040d5e0        0x0 contiki-dcg-mcmote.a(rpl.o)
 .data          0x0040d5e0        0x0 contiki-dcg-mcmote.a(timer.o)
 .data          0x0040d5e0        0xc contiki-dcg-mcmote.a(neighbor-attr.o)
 .data          0x0040d5ec        0x0 contiki-dcg-mcmote.a(debug-uart.o)
 .data          0x0040d5ec        0x0 contiki-dcg-mcmote.a(leds-arch.o)
 .data          0x0040d5ec        0x0 contiki-dcg-mcmote.a(uart2.o)
 .data          0x0040d5ec        0x0 /opt/local/CodeSourcery/Sourcery_G++_Lite/bin/../lib/gcc/arm-none-eabi/4.3.2/libgcc.a(_udivsi3.o)
 .data          0x0040d5ec        0x0 /opt/local/CodeSourcery/Sourcery_G++_Lite/bin/../lib/gcc/arm-none-eabi/4.3.2/libgcc.a(_divsi3.o)
 .data          0x0040d5ec        0x0 /opt/local/CodeSourcery/Sourcery_G++_Lite/bin/../lib/gcc/arm-none-eabi/4.3.2/libgcc.a(_dvmd_tls.o)
 .data          0x0040d5ec        0x0 /opt/local/CodeSourcery/Sourcery_G++_Lite/bin/../lib/gcc/arm-none-eabi/4.3.2/libgcc.a(_aeabi_uldivmod.o)
 .data          0x0040d5ec        0x0 /opt/local/CodeSourcery/Sourcery_G++_Lite/bin/../lib/gcc/arm-none-eabi/4.3.2/libgcc.a(bpabi.o)
 .data          0x0040d5ec        0x0 /opt/local/CodeSourcery/Sourcery_G++_Lite/bin/../lib/gcc/arm-none-eabi/4.3.2/libgcc.a(_divdi3.o)
 .data          0x0040d5ec        0x0 /opt/local/CodeSourcery/Sourcery_G++_Lite/bin/../lib/gcc/arm-none-eabi/4.3.2/libgcc.a(_udivdi3.o)
 .data          0x0040d5ec        0x0 /opt/local/CodeSourcery/Sourcery_G++_Lite/bin/../lib/gcc/arm-none-eabi/4.3.2/libgcc.a(_clz.o)
 .data          0x0040d5ec        0x8 /opt/local/CodeSourcery/Sourcery_G++_Lite/bin/../lib/gcc/arm-none-eabi/4.3.2/../../../../arm-none-eabi/lib/libc.a(lib_a-ctype_.o)
                0x0040d5ec                __ctype_ptr
                0x0040d5f0                __ctype_ptr__
 .data          0x0040d5f4        0x0 /opt/local/CodeSourcery/Sourcery_G++_Lite/bin/../lib/gcc/arm-none-eabi/4.3.2/../../../../arm-none-eabi/lib/libc.a(lib_a-memcmp.o)
 .data          0x0040d5f4        0x0 /opt/local/CodeSourcery/Sourcery_G++_Lite/bin/../lib/gcc/arm-none-eabi/4.3.2/../../../../arm-none-eabi/lib/libc.a(lib_a-memcpy.o)
 .data          0x0040d5f4        0x0 /opt/local/CodeSourcery/Sourcery_G++_Lite/bin/../lib/gcc/arm-none-eabi/4.3.2/../../../../arm-none-eabi/lib/libc.a(lib_a-memmove.o)
 .data          0x0040d5f4        0x0 /opt/local/CodeSourcery/Sourcery_G++_Lite/bin/../lib/gcc/arm-none-eabi/4.3.2/../../../../arm-none-eabi/lib/libc.a(lib_a-memset.o)
 .data          0x0040d5f4        0x0 /opt/local/CodeSourcery/Sourcery_G++_Lite/bin/../lib/gcc/arm-none-eabi/4.3.2/../../../../arm-none-eabi/lib/libc.a(lib_a-strlen.o)
 .data          0x0040d5f4        0x0 /opt/local/CodeSourcery/Sourcery_G++_Lite/bin/../lib/gcc/arm-none-eabi/4.3.2/../../../../arm-none-eabi/lib/libc.a(lib_a-strncmp.o)

.data1
 *(.data1)
                0x0040d5f4                _edata = .
                0x0040d5f4                PROVIDE (edata, .)

.stack          0x0040d5f4      0x720
                0x0040d5f4                __stack_start__ = .
                0x0040d6f4                . = (. + IRQ_STACK_SIZE)
 *fill*         0x0040d5f4      0x100 00
                0x0040d6f4                . = ALIGN (0x4)
                0x0040d6f4                __irq_stack_top__ = .
                0x0040d7f4                . = (. + FIQ_STACK_SIZE)
 *fill*         0x0040d6f4      0x100 00
                0x0040d7f4                . = ALIGN (0x4)
                0x0040d7f4                __fiq_stack_top__ = .
                0x0040d8f4                . = (. + SVC_STACK_SIZE)
 *fill*         0x0040d7f4      0x100 00
                0x0040d8f4                . = ALIGN (0x4)
                0x0040d8f4                __svc_stack_top__ = .
                0x0040d904                . = (. + ABT_STACK_SIZE)
 *fill*         0x0040d8f4       0x10 00
                0x0040d904                . = ALIGN (0x4)
                0x0040d904                __abt_stack_top__ = .
                0x0040d914                . = (. + UND_STACK_SIZE)
 *fill*         0x0040d904       0x10 00
                0x0040d914                . = ALIGN (0x4)
                0x0040d914                __und_stack_top__ = .
                0x0040dd14                . = (. + SYS_STACK_SIZE)
 *fill*         0x0040d914      0x400 00
                0x0040dd14                . = ALIGN (0x4)
                0x0040dd14                __sys_stack_top__ = .
                0x0040dd14                __stack_end__ = .
                0x0040dd14                __bss_start = .
                0x0040dd14                __bss_start__ = .

.bss            0x0040dd14     0x4d98
 *(.dynbss)
 *(.bss .bss.* .gnu.linkonce.b.*)
 .bss           0x0040dd14        0x4 udp-sink.co
 .bss           0x0040dd18       0x24 obj_dcg-mcmote/collect-common.o
 .bss           0x0040dd3c        0x2 obj_dcg-mcmote/contiki-mc1322x-main.o
                0x0040dd3c                sensors_flags
 .bss           0x0040dd3e        0x0 obj_dcg-mcmote/start.o
 .bss           0x0040dd3e        0x0 obj_dcg-mcmote/symbols.o
 .bss           0x0040dd3e        0x8 contiki-dcg-mcmote.a(rimeaddr.o)
                0x0040dd3e                rimeaddr_node_addr
 .bss           0x0040dd46        0x0 contiki-dcg-mcmote.a(nullmac.o)
 .bss           0x0040dd46       0x90 contiki-dcg-mcmote.a(nullrdc.o)
 .bss           0x0040ddd6        0x0 contiki-dcg-mcmote.a(mac.o)
 .bss           0x0040ddd6        0x2 contiki-dcg-mcmote.a(framer-802154.o)
 .bss           0x0040ddd8      0x290 contiki-dcg-mcmote.a(rpl-dag.o)
 .bss           0x0040e068        0x1 contiki-dcg-mcmote.a(rpl-icmp6.o)
 *fill*         0x0040e069        0x3 00
 .bss           0x0040e06c       0x28 contiki-dcg-mcmote.a(rpl-timers.o)
 .bss           0x0040e094        0x0 contiki-dcg-mcmote.a(rpl-of-etx.o)
 .bss           0x0040e094       0x80 contiki-dcg-mcmote.a(process.o)
                0x0040e098                process_list
                0x0040e097                process_maxevents
                0x0040e09c                process_current
 .bss           0x0040e114        0x0 contiki-dcg-mcmote.a(autostart.o)
 .bss           0x0040e114      0x114 contiki-dcg-mcmote.a(serial-line.o)
                0x0040e114                serial_line_event_message
 .bss           0x0040e228        0x0 contiki-dcg-mcmote.a(memb.o)
 .bss           0x0040e228        0x0 contiki-dcg-mcmote.a(list.o)
 .bss           0x0040e228        0x8 contiki-dcg-mcmote.a(etimer.o)
 .bss           0x0040e230        0x8 contiki-dcg-mcmote.a(ctimer.o)
 .bss           0x0040e238        0x0 contiki-dcg-mcmote.a(stimer.o)
 .bss           0x0040e238        0x0 contiki-dcg-mcmote.a(random.o)
 .bss           0x0040e238        0x0 contiki-dcg-mcmote.a(ringbuf.o)
 .bss           0x0040e238        0x0 contiki-dcg-mcmote.a(uip-debug.o)
 .bss           0x0040e238      0x110 contiki-dcg-mcmote.a(packetbuf.o)
                0x0040e274                packetbuf_addrs
                0x0040e244                packetbuf_attrs
 .bss           0x0040e348      0xdac contiki-dcg-mcmote.a(queuebuf.o)
 .bss           0x0040f0f4      0x7a4 contiki-dcg-mcmote.a(uip6.o)
                0x0040f6fe                uip_len
                0x0040f6f0                uip_sappdata
                0x0040f0f4                uip_acc32
                0x0040f88f                uip_lladdr
                0x0040f1d8                uip_aligned_buf
                0x0040f6fc                uip_flags
                0x0040f704                uip_next_hdr
                0x0040f700                uip_udp_conn
                0x0040f6f8                uip_appdata
                0x0040f10c                uip_conn
                0x0040f114                uip_conns
                0x0040f708                uip_ext_bitmap
                0x0040f0fa                uip_listenports
                0x0040f6ec                uip_ext_len
                0x0040f6f6                uip_ext_opt_offset
                0x0040f6f4                uip_slen
                0x0040f70c                uip_udp_conns
 .bss           0x0040f898       0x64 contiki-dcg-mcmote.a(tcpip.o)
                0x0040f8f5                tcpip_event
 .bss           0x0040f8fc       0x10 contiki-dcg-mcmote.a(uip-icmp6.o)
 .bss           0x0040f90c       0x14 contiki-dcg-mcmote.a(uip-nd6.o)
 .bss           0x0040f920      0x55c contiki-dcg-mcmote.a(sicslowpan.o)
                0x0040fe74                sicslowpan_mac
                0x0040f94e                frag_sender
 .bss           0x0040fe7c       0x10 contiki-dcg-mcmote.a(neighbor-info.o)
 .bss           0x0040fe8c      0xe34 contiki-dcg-mcmote.a(uip-ds6.o)
                0x00410cb8                uip_ds6_timer_ra
                0x0040fe90                uip_ds6_if
                0x004105cc                uip_ds6_prefix_list
                0x00410ca8                uip_ds6_timer_periodic
                0x00410644                uip_ds6_defrt_list
                0x00410688                uip_ds6_nbr_cache
                0x0040ffb0                uip_ds6_routing_table
 .bss           0x00410cc0        0x8 contiki-dcg-mcmote.a(clock.o)
                0x00410cc4                seconds
 .bss           0x00410cc8        0x8 contiki-dcg-mcmote.a(button-sensor.o)
 .bss           0x00410cd0        0xc contiki-dcg-mcmote.a(sensors.o)
                0x00410cd1                sensors_event
 .bss           0x00410cdc        0x0 contiki-dcg-mcmote.a(watchdog.o)
 .bss           0x00410cdc        0x8 contiki-dcg-mcmote.a(contiki-crm.o)
                0x00410cdc                cal_rtc_secs
 .bss           0x00410ce4       0x98 contiki-dcg-mcmote.a(contiki-maca.o)
 .bss           0x00410d7c        0x4 contiki-dcg-mcmote.a(contiki-misc.o)
 .bss           0x00410d80        0x2 contiki-dcg-mcmote.a(leds.o)
 *fill*         0x00410d82        0x2 00
 .bss           0x00410d84        0x4 contiki-dcg-mcmote.a(contiki-uart.o)
                0x00410d84                uart1_input_handler
 .bss           0x00410d88        0x0 contiki-dcg-mcmote.a(dbg-printf.o)
 .bss           0x00410d88        0x0 contiki-dcg-mcmote.a(strformat.o)
 .bss           0x00410d88     0x134c contiki-dcg-mcmote.a(maca.o)
                0x004120a8                fcs_mode
                0x004120cc                maca_entry
                0x004120b0                tx_head
                0x004120ac                rx_head
 .bss           0x004120d4        0x0 contiki-dcg-mcmote.a(nvm.o)
 .bss           0x004120d4      0x470 contiki-dcg-mcmote.a(uart1.o)
                0x004120d8                u1_rx_head
                0x004120dc                u1_rx_buf
                0x0041213c                u1_tx_head
                0x00412144                u1_tx_buf
                0x00412140                u1_tx_tail
                0x004120d4                u1_rx_tail
 .bss           0x00412544        0x0 contiki-dcg-mcmote.a(default_lowleve)
 .bss           0x00412544        0x0 contiki-dcg-mcmote.a(isr.o)
 .bss           0x00412544        0x0 contiki-dcg-mcmote.a(frame802154.o)
 .bss           0x00412544        0x0 contiki-dcg-mcmote.a(rpl.o)
 .bss           0x00412544        0x0 contiki-dcg-mcmote.a(timer.o)
 .bss           0x00412544       0xf8 contiki-dcg-mcmote.a(neighbor-attr.o)
 .bss           0x0041263c        0x0 contiki-dcg-mcmote.a(debug-uart.o)
 .bss           0x0041263c        0x0 contiki-dcg-mcmote.a(leds-arch.o)
 .bss           0x0041263c      0x470 contiki-dcg-mcmote.a(uart2.o)
                0x004126ac                u2_tx_buf
                0x004126a8                u2_tx_tail
                0x004126a4                u2_tx_head
                0x00412640                u2_rx_head
                0x00412644                u2_rx_buf
                0x0041263c                u2_rx_tail
 .bss           0x00412aac        0x0 /opt/local/CodeSourcery/Sourcery_G++_Lite/bin/../lib/gcc/arm-none-eabi/4.3.2/libgcc.a(_udivsi3.o)
 .bss           0x00412aac        0x0 /opt/local/CodeSourcery/Sourcery_G++_Lite/bin/../lib/gcc/arm-none-eabi/4.3.2/libgcc.a(_divsi3.o)
 .bss           0x00412aac        0x0 /opt/local/CodeSourcery/Sourcery_G++_Lite/bin/../lib/gcc/arm-none-eabi/4.3.2/libgcc.a(_dvmd_tls.o)
 .bss           0x00412aac        0x0 /opt/local/CodeSourcery/Sourcery_G++_Lite/bin/../lib/gcc/arm-none-eabi/4.3.2/libgcc.a(_aeabi_uldivmod.o)
 .bss           0x00412aac        0x0 /opt/local/CodeSourcery/Sourcery_G++_Lite/bin/../lib/gcc/arm-none-eabi/4.3.2/libgcc.a(bpabi.o)
 .bss           0x00412aac        0x0 /opt/local/CodeSourcery/Sourcery_G++_Lite/bin/../lib/gcc/arm-none-eabi/4.3.2/libgcc.a(_divdi3.o)
 .bss           0x00412aac        0x0 /opt/local/CodeSourcery/Sourcery_G++_Lite/bin/../lib/gcc/arm-none-eabi/4.3.2/libgcc.a(_udivdi3.o)
 .bss           0x00412aac        0x0 /opt/local/CodeSourcery/Sourcery_G++_Lite/bin/../lib/gcc/arm-none-eabi/4.3.2/libgcc.a(_clz.o)
 .bss           0x00412aac        0x0 /opt/local/CodeSourcery/Sourcery_G++_Lite/bin/../lib/gcc/arm-none-eabi/4.3.2/../../../../arm-none-eabi/lib/libc.a(lib_a-ctype_.o)
 .bss           0x00412aac        0x0 /opt/local/CodeSourcery/Sourcery_G++_Lite/bin/../lib/gcc/arm-none-eabi/4.3.2/../../../../arm-none-eabi/lib/libc.a(lib_a-memcmp.o)
 .bss           0x00412aac        0x0 /opt/local/CodeSourcery/Sourcery_G++_Lite/bin/../lib/gcc/arm-none-eabi/4.3.2/../../../../arm-none-eabi/lib/libc.a(lib_a-memcpy.o)
 .bss           0x00412aac        0x0 /opt/local/CodeSourcery/Sourcery_G++_Lite/bin/../lib/gcc/arm-none-eabi/4.3.2/../../../../arm-none-eabi/lib/libc.a(lib_a-memmove.o)
 .bss           0x00412aac        0x0 /opt/local/CodeSourcery/Sourcery_G++_Lite/bin/../lib/gcc/arm-none-eabi/4.3.2/../../../../arm-none-eabi/lib/libc.a(lib_a-memset.o)
 .bss           0x00412aac        0x0 /opt/local/CodeSourcery/Sourcery_G++_Lite/bin/../lib/gcc/arm-none-eabi/4.3.2/../../../../arm-none-eabi/lib/libc.a(lib_a-strlen.o)
 .bss           0x00412aac        0x0 /opt/local/CodeSourcery/Sourcery_G++_Lite/bin/../lib/gcc/arm-none-eabi/4.3.2/../../../../arm-none-eabi/lib/libc.a(lib_a-strncmp.o)
 *(COMMON)
                0x00412aac                . = ALIGN ((. != 0x0)?0x4:0x1)
                0x00412aac                _bss_end__ = .
                0x00412aac                __bss_end__ = .
                0x00412aac                . = ALIGN (0x4)

.heap           0x00412aac     0x1000
                0x00412aac                __heap_start__ = .
                0x00412aac                PROVIDE (__HEAP_START, .)
 *(.heap)
                0x00413aac                . = (. + HEAP_SIZE)
 *fill*         0x00412aac     0x1000 00
                0x00413aac                . = ALIGN (0x4)
                0x00413aac                __heap_end__ = .
                0x00413aac                PROVIDE (__HEAP_END, .)
                0x00413aac                . = ALIGN (0x4)
                0x00413aac                __end__ = .
                0x00413aac                _end = .
                0x00413aac                PROVIDE (end, .)
                0x00413aac                . = DATA_SEGMENT_END (.)

.stab           0x00000000      0x210
 *(.stab)
 .stab          0x00000000      0x210 obj_dcg-mcmote/start.o

.stabstr        0x00000000       0x32
 *(.stabstr)
 .stabstr       0x00000000       0x32 obj_dcg-mcmote/start.o

.stab.excl
 *(.stab.excl)

.stab.exclstr
 *(.stab.exclstr)

.stab.index
 *(.stab.index)

.stab.indexstr
 *(.stab.indexstr)

.comment        0x00000000      0x930
 *(.comment)
 .comment       0x00000000       0x2a udp-sink.co
 .comment       0x0000002a       0x2a obj_dcg-mcmote/collect-common.o
 .comment       0x00000054       0x2a obj_dcg-mcmote/contiki-mc1322x-main.o
 .comment       0x0000007e       0x2a obj_dcg-mcmote/symbols.o
 .comment       0x000000a8       0x2a contiki-dcg-mcmote.a(rimeaddr.o)
 .comment       0x000000d2       0x2a contiki-dcg-mcmote.a(nullmac.o)
 .comment       0x000000fc       0x2a contiki-dcg-mcmote.a(nullrdc.o)
 .comment       0x00000126       0x2a contiki-dcg-mcmote.a(mac.o)
 .comment       0x00000150       0x2a contiki-dcg-mcmote.a(framer-802154.o)
 .comment       0x0000017a       0x2a contiki-dcg-mcmote.a(rpl-dag.o)
 .comment       0x000001a4       0x2a contiki-dcg-mcmote.a(rpl-icmp6.o)
 .comment       0x000001ce       0x2a contiki-dcg-mcmote.a(rpl-timers.o)
 .comment       0x000001f8       0x2a contiki-dcg-mcmote.a(rpl-of-etx.o)
 .comment       0x00000222       0x2a contiki-dcg-mcmote.a(process.o)
 .comment       0x0000024c       0x2a contiki-dcg-mcmote.a(autostart.o)
 .comment       0x00000276       0x2a contiki-dcg-mcmote.a(serial-line.o)
 .comment       0x000002a0       0x2a contiki-dcg-mcmote.a(memb.o)
 .comment       0x000002ca       0x2a contiki-dcg-mcmote.a(list.o)
 .comment       0x000002f4       0x2a contiki-dcg-mcmote.a(etimer.o)
 .comment       0x0000031e       0x2a contiki-dcg-mcmote.a(ctimer.o)
 .comment       0x00000348       0x2a contiki-dcg-mcmote.a(stimer.o)
 .comment       0x00000372       0x2a contiki-dcg-mcmote.a(random.o)
 .comment       0x0000039c       0x2a contiki-dcg-mcmote.a(ringbuf.o)
 .comment       0x000003c6       0x2a contiki-dcg-mcmote.a(uip-debug.o)
 .comment       0x000003f0       0x2a contiki-dcg-mcmote.a(packetbuf.o)
 .comment       0x0000041a       0x2a contiki-dcg-mcmote.a(queuebuf.o)
 .comment       0x00000444       0x2a contiki-dcg-mcmote.a(uip6.o)
 .comment       0x0000046e       0x2a contiki-dcg-mcmote.a(tcpip.o)
 .comment       0x00000498       0x2a contiki-dcg-mcmote.a(uip-icmp6.o)
 .comment       0x000004c2       0x2a contiki-dcg-mcmote.a(uip-nd6.o)
 .comment       0x000004ec       0x2a contiki-dcg-mcmote.a(sicslowpan.o)
 .comment       0x00000516       0x2a contiki-dcg-mcmote.a(neighbor-info.o)
 .comment       0x00000540       0x2a contiki-dcg-mcmote.a(uip-ds6.o)
 .comment       0x0000056a       0x2a contiki-dcg-mcmote.a(clock.o)
 .comment       0x00000594       0x2a contiki-dcg-mcmote.a(button-sensor.o)
 .comment       0x000005be       0x2a contiki-dcg-mcmote.a(sensors.o)
 .comment       0x000005e8       0x2a contiki-dcg-mcmote.a(watchdog.o)
 .comment       0x00000612       0x2a contiki-dcg-mcmote.a(contiki-crm.o)
 .comment       0x0000063c       0x2a contiki-dcg-mcmote.a(contiki-maca.o)
 .comment       0x00000666       0x2a contiki-dcg-mcmote.a(contiki-misc.o)
 .comment       0x00000690       0x2a contiki-dcg-mcmote.a(leds.o)
 .comment       0x000006ba       0x2a contiki-dcg-mcmote.a(contiki-uart.o)
 .comment       0x000006e4       0x2a contiki-dcg-mcmote.a(dbg-printf.o)
 .comment       0x0000070e       0x2a contiki-dcg-mcmote.a(strformat.o)
 .comment       0x00000738       0x2a contiki-dcg-mcmote.a(maca.o)
 .comment       0x00000762       0x2a contiki-dcg-mcmote.a(nvm.o)
 .comment       0x0000078c       0x2a contiki-dcg-mcmote.a(uart1.o)
 .comment       0x000007b6       0x2a contiki-dcg-mcmote.a(default_lowleve)
 .comment       0x000007e0       0x2a contiki-dcg-mcmote.a(isr.o)
 .comment       0x0000080a       0x2a contiki-dcg-mcmote.a(frame802154.o)
 .comment       0x00000834       0x2a contiki-dcg-mcmote.a(rpl.o)
 .comment       0x0000085e       0x2a contiki-dcg-mcmote.a(timer.o)
 .comment       0x00000888       0x2a contiki-dcg-mcmote.a(neighbor-attr.o)
 .comment       0x000008b2       0x2a contiki-dcg-mcmote.a(debug-uart.o)
 .comment       0x000008dc       0x2a contiki-dcg-mcmote.a(leds-arch.o)
 .comment       0x00000906       0x2a contiki-dcg-mcmote.a(uart2.o)

.debug
 *(.debug)

.line
 *(.line)

.debug_srcinfo
 *(.debug_srcinfo)

.debug_sfnames
 *(.debug_sfnames)

.debug_aranges  0x00000000      0x6c8
 *(.debug_aranges)
 .debug_aranges
                0x00000000       0x20 udp-sink.co
 .debug_aranges
                0x00000020       0x20 obj_dcg-mcmote/collect-common.o
 .debug_aranges
                0x00000040       0x20 obj_dcg-mcmote/contiki-mc1322x-main.o
 .debug_aranges
                0x00000060       0x20 contiki-dcg-mcmote.a(rimeaddr.o)
 .debug_aranges
                0x00000080       0x20 contiki-dcg-mcmote.a(nullmac.o)
 .debug_aranges
                0x000000a0       0x20 contiki-dcg-mcmote.a(nullrdc.o)
 .debug_aranges
                0x000000c0       0x20 contiki-dcg-mcmote.a(mac.o)
 .debug_aranges
                0x000000e0       0x20 contiki-dcg-mcmote.a(framer-802154.o)
 .debug_aranges
                0x00000100       0x20 contiki-dcg-mcmote.a(rpl-dag.o)
 .debug_aranges
                0x00000120       0x20 contiki-dcg-mcmote.a(rpl-icmp6.o)
 .debug_aranges
                0x00000140       0x20 contiki-dcg-mcmote.a(rpl-timers.o)
 .debug_aranges
                0x00000160       0x20 contiki-dcg-mcmote.a(rpl-of-etx.o)
 .debug_aranges
                0x00000180       0x20 contiki-dcg-mcmote.a(process.o)
 .debug_aranges
                0x000001a0       0x20 contiki-dcg-mcmote.a(autostart.o)
 .debug_aranges
                0x000001c0       0x20 contiki-dcg-mcmote.a(serial-line.o)
 .debug_aranges
                0x000001e0       0x20 contiki-dcg-mcmote.a(memb.o)
 .debug_aranges
                0x00000200       0x20 contiki-dcg-mcmote.a(list.o)
 .debug_aranges
                0x00000220       0x20 contiki-dcg-mcmote.a(etimer.o)
 .debug_aranges
                0x00000240       0x20 contiki-dcg-mcmote.a(ctimer.o)
 .debug_aranges
                0x00000260       0x20 contiki-dcg-mcmote.a(stimer.o)
 .debug_aranges
                0x00000280       0x20 contiki-dcg-mcmote.a(random.o)
 .debug_aranges
                0x000002a0       0x20 contiki-dcg-mcmote.a(ringbuf.o)
 .debug_aranges
                0x000002c0       0x20 contiki-dcg-mcmote.a(uip-debug.o)
 .debug_aranges
                0x000002e0       0x20 contiki-dcg-mcmote.a(packetbuf.o)
 .debug_aranges
                0x00000300       0x20 contiki-dcg-mcmote.a(queuebuf.o)
 .debug_aranges
                0x00000320       0x20 contiki-dcg-mcmote.a(uip6.o)
 .debug_aranges
                0x00000340       0x20 contiki-dcg-mcmote.a(tcpip.o)
 .debug_aranges
                0x00000360       0x20 contiki-dcg-mcmote.a(uip-icmp6.o)
 .debug_aranges
                0x00000380       0x20 contiki-dcg-mcmote.a(uip-nd6.o)
 .debug_aranges
                0x000003a0       0x20 contiki-dcg-mcmote.a(sicslowpan.o)
 .debug_aranges
                0x000003c0       0x20 contiki-dcg-mcmote.a(neighbor-info.o)
 .debug_aranges
                0x000003e0       0x20 contiki-dcg-mcmote.a(uip-ds6.o)
 .debug_aranges
                0x00000400       0x20 contiki-dcg-mcmote.a(clock.o)
 .debug_aranges
                0x00000420       0x20 contiki-dcg-mcmote.a(button-sensor.o)
 .debug_aranges
                0x00000440       0x20 contiki-dcg-mcmote.a(sensors.o)
 .debug_aranges
                0x00000460       0x20 contiki-dcg-mcmote.a(watchdog.o)
 .debug_aranges
                0x00000480       0x20 contiki-dcg-mcmote.a(contiki-crm.o)
 .debug_aranges
                0x000004a0       0x20 contiki-dcg-mcmote.a(contiki-maca.o)
 .debug_aranges
                0x000004c0       0x20 contiki-dcg-mcmote.a(contiki-misc.o)
 .debug_aranges
                0x000004e0       0x20 contiki-dcg-mcmote.a(leds.o)
 .debug_aranges
                0x00000500       0x20 contiki-dcg-mcmote.a(contiki-uart.o)
 .debug_aranges
                0x00000520       0x20 contiki-dcg-mcmote.a(dbg-printf.o)
 .debug_aranges
                0x00000540       0x20 contiki-dcg-mcmote.a(strformat.o)
 .debug_aranges
                0x00000560       0x20 contiki-dcg-mcmote.a(maca.o)
 .debug_aranges
                0x00000580       0x20 contiki-dcg-mcmote.a(uart1.o)
 .debug_aranges
                0x000005a0       0x20 contiki-dcg-mcmote.a(default_lowleve)
 .debug_aranges
                0x000005c0       0x28 contiki-dcg-mcmote.a(isr.o)
 .debug_aranges
                0x000005e8       0x20 contiki-dcg-mcmote.a(frame802154.o)
 .debug_aranges
                0x00000608       0x20 contiki-dcg-mcmote.a(rpl.o)
 .debug_aranges
                0x00000628       0x20 contiki-dcg-mcmote.a(timer.o)
 .debug_aranges
                0x00000648       0x20 contiki-dcg-mcmote.a(neighbor-attr.o)
 .debug_aranges
                0x00000668       0x20 contiki-dcg-mcmote.a(debug-uart.o)
 .debug_aranges
                0x00000688       0x20 contiki-dcg-mcmote.a(leds-arch.o)
 .debug_aranges
                0x000006a8       0x20 contiki-dcg-mcmote.a(uart2.o)

.debug_pubnames
                0x00000000     0x23fe
 *(.debug_pubnames)
 .debug_pubnames
                0x00000000       0xae udp-sink.co
 .debug_pubnames
                0x000000ae       0x68 obj_dcg-mcmote/collect-common.o
 .debug_pubnames
                0x00000116       0x96 obj_dcg-mcmote/contiki-mc1322x-main.o
 .debug_pubnames
                0x000001ac       0x30 obj_dcg-mcmote/symbols.o
 .debug_pubnames
                0x000001dc       0x79 contiki-dcg-mcmote.a(rimeaddr.o)
 .debug_pubnames
                0x00000255       0x25 contiki-dcg-mcmote.a(nullmac.o)
 .debug_pubnames
                0x0000027a       0x25 contiki-dcg-mcmote.a(nullrdc.o)
 .debug_pubnames
                0x0000029f       0x2d contiki-dcg-mcmote.a(mac.o)
 .debug_pubnames
                0x000002cc       0x24 contiki-dcg-mcmote.a(framer-802154.o)
 .debug_pubnames
                0x000002f0      0x159 contiki-dcg-mcmote.a(rpl-dag.o)
 .debug_pubnames
                0x00000449       0x64 contiki-dcg-mcmote.a(rpl-icmp6.o)
 .debug_pubnames
                0x000004ad       0x5c contiki-dcg-mcmote.a(rpl-timers.o)
 .debug_pubnames
                0x00000509       0x21 contiki-dcg-mcmote.a(rpl-of-etx.o)
 .debug_pubnames
                0x0000052a      0x10d contiki-dcg-mcmote.a(process.o)
 .debug_pubnames
                0x00000637       0x39 contiki-dcg-mcmote.a(autostart.o)
 .debug_pubnames
                0x00000670       0x78 contiki-dcg-mcmote.a(serial-line.o)
 .debug_pubnames
                0x000006e8       0x4d contiki-dcg-mcmote.a(memb.o)
 .debug_pubnames
                0x00000735       0xc3 contiki-dcg-mcmote.a(list.o)
 .debug_pubnames
                0x000007f8      0x109 contiki-dcg-mcmote.a(etimer.o)
 .debug_pubnames
                0x00000901       0x8b contiki-dcg-mcmote.a(ctimer.o)
 .debug_pubnames
                0x0000098c       0x80 contiki-dcg-mcmote.a(stimer.o)
 .debug_pubnames
                0x00000a0c       0x32 contiki-dcg-mcmote.a(random.o)
 .debug_pubnames
                0x00000a3e       0x69 contiki-dcg-mcmote.a(ringbuf.o)
 .debug_pubnames
                0x00000aa7       0x48 contiki-dcg-mcmote.a(uip-debug.o)
 .debug_pubnames
                0x00000aef      0x22c contiki-dcg-mcmote.a(packetbuf.o)
 .debug_pubnames
                0x00000d1b       0xff contiki-dcg-mcmote.a(queuebuf.o)
 .debug_pubnames
                0x00000e1a      0x203 contiki-dcg-mcmote.a(uip6.o)
 .debug_pubnames
                0x0000101d      0x12c contiki-dcg-mcmote.a(tcpip.o)
 .debug_pubnames
                0x00001149       0x61 contiki-dcg-mcmote.a(uip-icmp6.o)
 .debug_pubnames
                0x000011aa       0x52 contiki-dcg-mcmote.a(uip-nd6.o)
 .debug_pubnames
                0x000011fc       0x9a contiki-dcg-mcmote.a(sicslowpan.o)
 .debug_pubnames
                0x00001296       0x8b contiki-dcg-mcmote.a(neighbor-info.o)
 .debug_pubnames
                0x00001321      0x3d7 contiki-dcg-mcmote.a(uip-ds6.o)
 .debug_pubnames
                0x000016f8       0x6b contiki-dcg-mcmote.a(clock.o)
 .debug_pubnames
                0x00001763       0x31 contiki-dcg-mcmote.a(button-sensor.o)
 .debug_pubnames
                0x00001794       0x80 contiki-dcg-mcmote.a(sensors.o)
 .debug_pubnames
                0x00001814       0x73 contiki-dcg-mcmote.a(watchdog.o)
 .debug_pubnames
                0x00001887       0x54 contiki-dcg-mcmote.a(contiki-crm.o)
 .debug_pubnames
                0x000018db      0x17c contiki-dcg-mcmote.a(contiki-maca.o)
 .debug_pubnames
                0x00001a57       0x39 contiki-dcg-mcmote.a(contiki-misc.o)
 .debug_pubnames
                0x00001a90       0x75 contiki-dcg-mcmote.a(leds.o)
 .debug_pubnames
                0x00001b05       0x3e contiki-dcg-mcmote.a(contiki-uart.o)
 .debug_pubnames
                0x00001b43       0x1d contiki-dcg-mcmote.a(dbg-printf.o)
 .debug_pubnames
                0x00001b60       0x32 contiki-dcg-mcmote.a(strformat.o)
 .debug_pubnames
                0x00001b92      0x389 contiki-dcg-mcmote.a(maca.o)
 .debug_pubnames
                0x00001f1b       0x5a contiki-dcg-mcmote.a(nvm.o)
 .debug_pubnames
                0x00001f75       0x96 contiki-dcg-mcmote.a(uart1.o)
 .debug_pubnames
                0x0000200b       0x46 contiki-dcg-mcmote.a(default_lowleve)
 .debug_pubnames
                0x00002051       0x39 contiki-dcg-mcmote.a(isr.o)
 .debug_pubnames
                0x0000208a       0x56 contiki-dcg-mcmote.a(frame802154.o)
 .debug_pubnames
                0x000020e0       0x7b contiki-dcg-mcmote.a(rpl.o)
 .debug_pubnames
                0x0000215b       0x68 contiki-dcg-mcmote.a(timer.o)
 .debug_pubnames
                0x000021c3      0x137 contiki-dcg-mcmote.a(neighbor-attr.o)
 .debug_pubnames
                0x000022fa       0x25 contiki-dcg-mcmote.a(debug-uart.o)
 .debug_pubnames
                0x0000231f       0x49 contiki-dcg-mcmote.a(leds-arch.o)
 .debug_pubnames
                0x00002368       0x96 contiki-dcg-mcmote.a(uart2.o)

.debug_info     0x00000000    0x95029
 *(.debug_info .gnu.linkonce.wi.*)
 .debug_info    0x00000000     0x19c3 udp-sink.co
 .debug_info    0x000019c3      0xfa1 obj_dcg-mcmote/collect-common.o
 .debug_info    0x00002964     0x9a0c obj_dcg-mcmote/contiki-mc1322x-main.o
 .debug_info    0x0000c370       0xab obj_dcg-mcmote/symbols.o
 .debug_info    0x0000c41b      0xbe6 contiki-dcg-mcmote.a(rimeaddr.o)
 .debug_info    0x0000d001      0xe13 contiki-dcg-mcmote.a(nullmac.o)
 .debug_info    0x0000de14     0x1196 contiki-dcg-mcmote.a(nullrdc.o)
 .debug_info    0x0000efaa      0xb7f contiki-dcg-mcmote.a(mac.o)
 .debug_info    0x0000fb29     0x1063 contiki-dcg-mcmote.a(framer-802154.o)
 .debug_info    0x00010b8c     0x1ba6 contiki-dcg-mcmote.a(rpl-dag.o)
 .debug_info    0x00012732     0x1f31 contiki-dcg-mcmote.a(rpl-icmp6.o)
 .debug_info    0x00014663     0x1376 contiki-dcg-mcmote.a(rpl-timers.o)
 .debug_info    0x000159d9     0x143f contiki-dcg-mcmote.a(rpl-of-etx.o)
 .debug_info    0x00016e18      0xf86 contiki-dcg-mcmote.a(process.o)
 .debug_info    0x00017d9e      0xc1c contiki-dcg-mcmote.a(autostart.o)
 .debug_info    0x000189ba      0xd62 contiki-dcg-mcmote.a(serial-line.o)
 .debug_info    0x0001971c      0xc16 contiki-dcg-mcmote.a(memb.o)
 .debug_info    0x0001a332      0x31e contiki-dcg-mcmote.a(list.o)
 .debug_info    0x0001a650      0xf1d contiki-dcg-mcmote.a(etimer.o)
 .debug_info    0x0001b56d      0xec7 contiki-dcg-mcmote.a(ctimer.o)
 .debug_info    0x0001c434      0xbfc contiki-dcg-mcmote.a(stimer.o)
 .debug_info    0x0001d030      0xb18 contiki-dcg-mcmote.a(random.o)
 .debug_info    0x0001db48      0xc27 contiki-dcg-mcmote.a(ringbuf.o)
 .debug_info    0x0001e76f      0xc2c contiki-dcg-mcmote.a(uip-debug.o)
 .debug_info    0x0001f39b     0x102b contiki-dcg-mcmote.a(packetbuf.o)
 .debug_info    0x000203c6      0xfd4 contiki-dcg-mcmote.a(queuebuf.o)
 .debug_info    0x0002139a     0x19f8 contiki-dcg-mcmote.a(uip6.o)
 .debug_info    0x00022d92     0x1b65 contiki-dcg-mcmote.a(tcpip.o)
 .debug_info    0x000248f7      0xfb8 contiki-dcg-mcmote.a(uip-icmp6.o)
 .debug_info    0x000258af     0x1239 contiki-dcg-mcmote.a(uip-nd6.o)
 .debug_info    0x00026ae8     0x179e contiki-dcg-mcmote.a(sicslowpan.o)
 .debug_info    0x00028286      0xf0d contiki-dcg-mcmote.a(neighbor-info.o)
 .debug_info    0x00029193     0x1b05 contiki-dcg-mcmote.a(uip-ds6.o)
 .debug_info    0x0002ac98     0x8e02 contiki-dcg-mcmote.a(clock.o)
 .debug_info    0x00033a9a     0x8e75 contiki-dcg-mcmote.a(button-sensor.o)
 .debug_info    0x0003c90f      0xe0d contiki-dcg-mcmote.a(sensors.o)
 .debug_info    0x0003d71c       0x85 contiki-dcg-mcmote.a(watchdog.o)
 .debug_info    0x0003d7a1     0x8d84 contiki-dcg-mcmote.a(contiki-crm.o)
 .debug_info    0x00046525     0x953c contiki-dcg-mcmote.a(contiki-maca.o)
 .debug_info    0x0004fa61     0x8dc4 contiki-dcg-mcmote.a(contiki-misc.o)
 .debug_info    0x00058825      0xc27 contiki-dcg-mcmote.a(leds.o)
 .debug_info    0x0005944c       0x81 contiki-dcg-mcmote.a(contiki-uart.o)
 .debug_info    0x000594cd      0x1be contiki-dcg-mcmote.a(dbg-printf.o)
 .debug_info    0x0005968b      0x719 contiki-dcg-mcmote.a(strformat.o)
 .debug_info    0x00059da4     0x9b58 contiki-dcg-mcmote.a(maca.o)
 .debug_info    0x000638fc      0x1f8 contiki-dcg-mcmote.a(nvm.o)
 .debug_info    0x00063af4     0x8e33 contiki-dcg-mcmote.a(uart1.o)
 .debug_info    0x0006c927     0x8e6d contiki-dcg-mcmote.a(default_lowleve)
 .debug_info    0x00075794     0x8dc1 contiki-dcg-mcmote.a(isr.o)
 .debug_info    0x0007e555      0xed2 contiki-dcg-mcmote.a(frame802154.o)
 .debug_info    0x0007f427     0x160a contiki-dcg-mcmote.a(rpl.o)
 .debug_info    0x00080a31      0xbe7 contiki-dcg-mcmote.a(timer.o)
 .debug_info    0x00081618     0x11f6 contiki-dcg-mcmote.a(neighbor-attr.o)
 .debug_info    0x0008280e      0xb1e contiki-dcg-mcmote.a(debug-uart.o)
 .debug_info    0x0008332c     0x8eca contiki-dcg-mcmote.a(leds-arch.o)
 .debug_info    0x0008c1f6     0x8e33 contiki-dcg-mcmote.a(uart2.o)

.debug_abbrev   0x00000000     0x7bd9
 *(.debug_abbrev)
 .debug_abbrev  0x00000000      0x33d udp-sink.co
 .debug_abbrev  0x0000033d      0x2ff obj_dcg-mcmote/collect-common.o
 .debug_abbrev  0x0000063c      0x39f obj_dcg-mcmote/contiki-mc1322x-main.o
 .debug_abbrev  0x000009db       0x8b obj_dcg-mcmote/symbols.o
 .debug_abbrev  0x00000a66      0x1b0 contiki-dcg-mcmote.a(rimeaddr.o)
 .debug_abbrev  0x00000c16      0x27c contiki-dcg-mcmote.a(nullmac.o)
 .debug_abbrev  0x00000e92      0x332 contiki-dcg-mcmote.a(nullrdc.o)
 .debug_abbrev  0x000011c4      0x160 contiki-dcg-mcmote.a(mac.o)
 .debug_abbrev  0x00001324      0x2c3 contiki-dcg-mcmote.a(framer-802154.o)
 .debug_abbrev  0x000015e7      0x3b5 contiki-dcg-mcmote.a(rpl-dag.o)
 .debug_abbrev  0x0000199c      0x3f0 contiki-dcg-mcmote.a(rpl-icmp6.o)
 .debug_abbrev  0x00001d8c      0x248 contiki-dcg-mcmote.a(rpl-timers.o)
 .debug_abbrev  0x00001fd4      0x27e contiki-dcg-mcmote.a(rpl-of-etx.o)
 .debug_abbrev  0x00002252      0x318 contiki-dcg-mcmote.a(process.o)
 .debug_abbrev  0x0000256a      0x195 contiki-dcg-mcmote.a(autostart.o)
 .debug_abbrev  0x000026ff      0x24e contiki-dcg-mcmote.a(serial-line.o)
 .debug_abbrev  0x0000294d      0x189 contiki-dcg-mcmote.a(memb.o)
 .debug_abbrev  0x00002ad6      0x177 contiki-dcg-mcmote.a(list.o)
 .debug_abbrev  0x00002c4d      0x2ab contiki-dcg-mcmote.a(etimer.o)
 .debug_abbrev  0x00002ef8      0x260 contiki-dcg-mcmote.a(ctimer.o)
 .debug_abbrev  0x00003158      0x172 contiki-dcg-mcmote.a(stimer.o)
 .debug_abbrev  0x000032ca      0x144 contiki-dcg-mcmote.a(random.o)
 .debug_abbrev  0x0000340e      0x192 contiki-dcg-mcmote.a(ringbuf.o)
 .debug_abbrev  0x000035a0      0x16a contiki-dcg-mcmote.a(uip-debug.o)
 .debug_abbrev  0x0000370a      0x2e1 contiki-dcg-mcmote.a(packetbuf.o)
 .debug_abbrev  0x000039eb      0x26d contiki-dcg-mcmote.a(queuebuf.o)
 .debug_abbrev  0x00003c58      0x352 contiki-dcg-mcmote.a(uip6.o)
 .debug_abbrev  0x00003faa      0x458 contiki-dcg-mcmote.a(tcpip.o)
 .debug_abbrev  0x00004402      0x1fc contiki-dcg-mcmote.a(uip-icmp6.o)
 .debug_abbrev  0x000045fe      0x287 contiki-dcg-mcmote.a(uip-nd6.o)
 .debug_abbrev  0x00004885      0x3da contiki-dcg-mcmote.a(sicslowpan.o)
 .debug_abbrev  0x00004c5f      0x2e7 contiki-dcg-mcmote.a(neighbor-info.o)
 .debug_abbrev  0x00004f46      0x300 contiki-dcg-mcmote.a(uip-ds6.o)
 .debug_abbrev  0x00005246      0x1f7 contiki-dcg-mcmote.a(clock.o)
 .debug_abbrev  0x0000543d      0x1ce contiki-dcg-mcmote.a(button-sensor.o)
 .debug_abbrev  0x0000560b      0x263 contiki-dcg-mcmote.a(sensors.o)
 .debug_abbrev  0x0000586e       0x29 contiki-dcg-mcmote.a(watchdog.o)
 .debug_abbrev  0x00005897      0x1ab contiki-dcg-mcmote.a(contiki-crm.o)
 .debug_abbrev  0x00005a42      0x36c contiki-dcg-mcmote.a(contiki-maca.o)
 .debug_abbrev  0x00005dae      0x1dd contiki-dcg-mcmote.a(contiki-misc.o)
 .debug_abbrev  0x00005f8b      0x190 contiki-dcg-mcmote.a(leds.o)
 .debug_abbrev  0x0000611b       0x7c contiki-dcg-mcmote.a(contiki-uart.o)
 .debug_abbrev  0x00006197      0x110 contiki-dcg-mcmote.a(dbg-printf.o)
 .debug_abbrev  0x000062a7      0x240 contiki-dcg-mcmote.a(strformat.o)
 .debug_abbrev  0x000064e7      0x39d contiki-dcg-mcmote.a(maca.o)
 .debug_abbrev  0x00006884       0x89 contiki-dcg-mcmote.a(nvm.o)
 .debug_abbrev  0x0000690d      0x1c9 contiki-dcg-mcmote.a(uart1.o)
 .debug_abbrev  0x00006ad6      0x1b6 contiki-dcg-mcmote.a(default_lowleve)
 .debug_abbrev  0x00006c8c      0x1c5 contiki-dcg-mcmote.a(isr.o)
 .debug_abbrev  0x00006e51      0x20c contiki-dcg-mcmote.a(frame802154.o)
 .debug_abbrev  0x0000705d      0x282 contiki-dcg-mcmote.a(rpl.o)
 .debug_abbrev  0x000072df      0x17f contiki-dcg-mcmote.a(timer.o)
 .debug_abbrev  0x0000745e      0x2cc contiki-dcg-mcmote.a(neighbor-attr.o)
 .debug_abbrev  0x0000772a      0x135 contiki-dcg-mcmote.a(debug-uart.o)
 .debug_abbrev  0x0000785f      0x1b1 contiki-dcg-mcmote.a(leds-arch.o)
 .debug_abbrev  0x00007a10      0x1c9 contiki-dcg-mcmote.a(uart2.o)

.debug_line     0x00000000     0x664d
 *(.debug_line)
 .debug_line    0x00000000      0x2e5 udp-sink.co
 .debug_line    0x000002e5      0x24f obj_dcg-mcmote/collect-common.o
 .debug_line    0x00000534      0x3aa obj_dcg-mcmote/contiki-mc1322x-main.o
 .debug_line    0x000008de       0x4c obj_dcg-mcmote/symbols.o
 .debug_line    0x0000092a      0x140 contiki-dcg-mcmote.a(rimeaddr.o)
 .debug_line    0x00000a6a      0x169 contiki-dcg-mcmote.a(nullmac.o)
 .debug_line    0x00000bd3      0x1cd contiki-dcg-mcmote.a(nullrdc.o)
 .debug_line    0x00000da0       0xff contiki-dcg-mcmote.a(mac.o)
 .debug_line    0x00000e9f      0x1c1 contiki-dcg-mcmote.a(framer-802154.o)
 .debug_line    0x00001060      0x3b1 contiki-dcg-mcmote.a(rpl-dag.o)
 .debug_line    0x00001411      0x3a8 contiki-dcg-mcmote.a(rpl-icmp6.o)
 .debug_line    0x000017b9      0x23a contiki-dcg-mcmote.a(rpl-timers.o)
 .debug_line    0x000019f3      0x242 contiki-dcg-mcmote.a(rpl-of-etx.o)
 .debug_line    0x00001c35      0x1cf contiki-dcg-mcmote.a(process.o)
 .debug_line    0x00001e04      0x122 contiki-dcg-mcmote.a(autostart.o)
 .debug_line    0x00001f26      0x16f contiki-dcg-mcmote.a(serial-line.o)
 .debug_line    0x00002095      0x121 contiki-dcg-mcmote.a(memb.o)
 .debug_line    0x000021b6       0xb4 contiki-dcg-mcmote.a(list.o)
 .debug_line    0x0000226a      0x1e0 contiki-dcg-mcmote.a(etimer.o)
 .debug_line    0x0000244a      0x1e4 contiki-dcg-mcmote.a(ctimer.o)
 .debug_line    0x0000262e      0x123 contiki-dcg-mcmote.a(stimer.o)
 .debug_line    0x00002751       0xf6 contiki-dcg-mcmote.a(random.o)
 .debug_line    0x00002847      0x11c contiki-dcg-mcmote.a(ringbuf.o)
 .debug_line    0x00002963      0x144 contiki-dcg-mcmote.a(uip-debug.o)
 .debug_line    0x00002aa7      0x1cc contiki-dcg-mcmote.a(packetbuf.o)
 .debug_line    0x00002c73      0x1a1 contiki-dcg-mcmote.a(queuebuf.o)
 .debug_line    0x00002e14      0x4d8 contiki-dcg-mcmote.a(uip6.o)
 .debug_line    0x000032ec      0x2e8 contiki-dcg-mcmote.a(tcpip.o)
 .debug_line    0x000035d4      0x1e1 contiki-dcg-mcmote.a(uip-icmp6.o)
 .debug_line    0x000037b5      0x251 contiki-dcg-mcmote.a(uip-nd6.o)
 .debug_line    0x00003a06      0x3ec contiki-dcg-mcmote.a(sicslowpan.o)
 .debug_line    0x00003df2      0x1b6 contiki-dcg-mcmote.a(neighbor-info.o)
 .debug_line    0x00003fa8      0x39a contiki-dcg-mcmote.a(uip-ds6.o)
 .debug_line    0x00004342      0x18c contiki-dcg-mcmote.a(clock.o)
 .debug_line    0x000044ce      0x1c1 contiki-dcg-mcmote.a(button-sensor.o)
 .debug_line    0x0000468f      0x16d contiki-dcg-mcmote.a(sensors.o)
 .debug_line    0x000047fc       0x5a contiki-dcg-mcmote.a(watchdog.o)
 .debug_line    0x00004856      0x15b contiki-dcg-mcmote.a(contiki-crm.o)
 .debug_line    0x000049b1      0x290 contiki-dcg-mcmote.a(contiki-maca.o)
 .debug_line    0x00004c41      0x1c4 contiki-dcg-mcmote.a(contiki-misc.o)
 .debug_line    0x00004e05      0x11d contiki-dcg-mcmote.a(leds.o)
 .debug_line    0x00004f22       0x59 contiki-dcg-mcmote.a(contiki-uart.o)
 .debug_line    0x00004f7b       0xe2 contiki-dcg-mcmote.a(dbg-printf.o)
 .debug_line    0x0000505d      0x1ea contiki-dcg-mcmote.a(strformat.o)
 .debug_line    0x00005247      0x371 contiki-dcg-mcmote.a(maca.o)
 .debug_line    0x000055b8       0xe4 contiki-dcg-mcmote.a(nvm.o)
 .debug_line    0x0000569c      0x160 contiki-dcg-mcmote.a(uart1.o)
 .debug_line    0x000057fc      0x181 contiki-dcg-mcmote.a(default_lowleve)
 .debug_line    0x0000597d      0x15c contiki-dcg-mcmote.a(isr.o)
 .debug_line    0x00005ad9      0x1bb contiki-dcg-mcmote.a(frame802154.o)
 .debug_line    0x00005c94      0x260 contiki-dcg-mcmote.a(rpl.o)
 .debug_line    0x00005ef4      0x147 contiki-dcg-mcmote.a(timer.o)
 .debug_line    0x0000603b      0x278 contiki-dcg-mcmote.a(neighbor-attr.o)
 .debug_line    0x000062b3       0xfb contiki-dcg-mcmote.a(debug-uart.o)
 .debug_line    0x000063ae      0x13f contiki-dcg-mcmote.a(leds-arch.o)
 .debug_line    0x000064ed      0x160 contiki-dcg-mcmote.a(uart2.o)

.debug_frame    0x00000000     0x2bac
 *(.debug_frame)
 .debug_frame   0x00000000       0x80 udp-sink.co
 .debug_frame   0x00000080       0x60 obj_dcg-mcmote/collect-common.o
 .debug_frame   0x000000e0       0xa8 obj_dcg-mcmote/contiki-mc1322x-main.o
 .debug_frame   0x00000188       0x58 contiki-dcg-mcmote.a(rimeaddr.o)
 .debug_frame   0x000001e0       0x90 contiki-dcg-mcmote.a(nullmac.o)
 .debug_frame   0x00000270       0xb4 contiki-dcg-mcmote.a(nullrdc.o)
 .debug_frame   0x00000324       0x28 contiki-dcg-mcmote.a(mac.o)
 .debug_frame   0x0000034c       0x84 contiki-dcg-mcmote.a(framer-802154.o)
 .debug_frame   0x000003d0      0x21c contiki-dcg-mcmote.a(rpl-dag.o)
 .debug_frame   0x000005ec       0xe4 contiki-dcg-mcmote.a(rpl-icmp6.o)
 .debug_frame   0x000006d0       0xc4 contiki-dcg-mcmote.a(rpl-timers.o)
 .debug_frame   0x00000794       0x98 contiki-dcg-mcmote.a(rpl-of-etx.o)
 .debug_frame   0x0000082c      0x140 contiki-dcg-mcmote.a(process.o)
 .debug_frame   0x0000096c       0x40 contiki-dcg-mcmote.a(autostart.o)
 .debug_frame   0x000009ac       0x5c contiki-dcg-mcmote.a(serial-line.o)
 .debug_frame   0x00000a08       0x74 contiki-dcg-mcmote.a(memb.o)
 .debug_frame   0x00000a7c      0x120 contiki-dcg-mcmote.a(list.o)
 .debug_frame   0x00000b9c      0x144 contiki-dcg-mcmote.a(etimer.o)
 .debug_frame   0x00000ce0       0xcc contiki-dcg-mcmote.a(ctimer.o)
 .debug_frame   0x00000dac       0x9c contiki-dcg-mcmote.a(stimer.o)
 .debug_frame   0x00000e48       0x40 contiki-dcg-mcmote.a(random.o)
 .debug_frame   0x00000e88       0x70 contiki-dcg-mcmote.a(ringbuf.o)
 .debug_frame   0x00000ef8       0x4c contiki-dcg-mcmote.a(uip-debug.o)
 .debug_frame   0x00000f44      0x1e0 contiki-dcg-mcmote.a(packetbuf.o)
 .debug_frame   0x00001124       0xec contiki-dcg-mcmote.a(queuebuf.o)
 .debug_frame   0x00001210      0x1e0 contiki-dcg-mcmote.a(uip6.o)
 .debug_frame   0x000013f0      0x190 contiki-dcg-mcmote.a(tcpip.o)
 .debug_frame   0x00001580       0x70 contiki-dcg-mcmote.a(uip-icmp6.o)
 .debug_frame   0x000015f0       0x88 contiki-dcg-mcmote.a(uip-nd6.o)
 .debug_frame   0x00001678      0x124 contiki-dcg-mcmote.a(sicslowpan.o)
 .debug_frame   0x0000179c       0xa4 contiki-dcg-mcmote.a(neighbor-info.o)
 .debug_frame   0x00001840      0x3d4 contiki-dcg-mcmote.a(uip-ds6.o)
 .debug_frame   0x00001c14       0x70 contiki-dcg-mcmote.a(clock.o)
 .debug_frame   0x00001c84       0x70 contiki-dcg-mcmote.a(button-sensor.o)
 .debug_frame   0x00001cf4       0xa4 contiki-dcg-mcmote.a(sensors.o)
 .debug_frame   0x00001d98       0x60 contiki-dcg-mcmote.a(watchdog.o)
 .debug_frame   0x00001df8       0x60 contiki-dcg-mcmote.a(contiki-crm.o)
 .debug_frame   0x00001e58      0x128 contiki-dcg-mcmote.a(contiki-maca.o)
 .debug_frame   0x00001f80       0x58 contiki-dcg-mcmote.a(contiki-misc.o)
 .debug_frame   0x00001fd8       0xd0 contiki-dcg-mcmote.a(leds.o)
 .debug_frame   0x000020a8       0x20 contiki-dcg-mcmote.a(contiki-uart.o)
 .debug_frame   0x000020c8       0x44 contiki-dcg-mcmote.a(dbg-printf.o)
 .debug_frame   0x0000210c       0x9c contiki-dcg-mcmote.a(strformat.o)
 .debug_frame   0x000021a8      0x2f8 contiki-dcg-mcmote.a(maca.o)
 .debug_frame   0x000024a0       0x58 contiki-dcg-mcmote.a(uart1.o)
 .debug_frame   0x000024f8       0x68 contiki-dcg-mcmote.a(default_lowleve)
 .debug_frame   0x00002560       0x44 contiki-dcg-mcmote.a(isr.o)
 .debug_frame   0x000025a4       0xa0 contiki-dcg-mcmote.a(frame802154.o)
 .debug_frame   0x00002644       0xb8 contiki-dcg-mcmote.a(rpl.o)
 .debug_frame   0x000026fc       0x84 contiki-dcg-mcmote.a(timer.o)
 .debug_frame   0x00002780      0x158 contiki-dcg-mcmote.a(neighbor-attr.o)
 .debug_frame   0x000028d8       0x2c contiki-dcg-mcmote.a(debug-uart.o)
 .debug_frame   0x00002904       0x50 contiki-dcg-mcmote.a(leds-arch.o)
 .debug_frame   0x00002954       0x58 contiki-dcg-mcmote.a(uart2.o)
 .debug_frame   0x000029ac       0x20 /opt/local/CodeSourcery/Sourcery_G++_Lite/bin/../lib/gcc/arm-none-eabi/4.3.2/libgcc.a(_udivsi3.o)
 .debug_frame   0x000029cc       0x20 /opt/local/CodeSourcery/Sourcery_G++_Lite/bin/../lib/gcc/arm-none-eabi/4.3.2/libgcc.a(_divsi3.o)
 .debug_frame   0x000029ec       0x58 /opt/local/CodeSourcery/Sourcery_G++_Lite/bin/../lib/gcc/arm-none-eabi/4.3.2/libgcc.a(bpabi.o)
 .debug_frame   0x00002a44       0x38 /opt/local/CodeSourcery/Sourcery_G++_Lite/bin/../lib/gcc/arm-none-eabi/4.3.2/libgcc.a(_divdi3.o)
 .debug_frame   0x00002a7c       0x38 /opt/local/CodeSourcery/Sourcery_G++_Lite/bin/../lib/gcc/arm-none-eabi/4.3.2/libgcc.a(_udivdi3.o)
 .debug_frame   0x00002ab4       0x2c /opt/local/CodeSourcery/Sourcery_G++_Lite/bin/../lib/gcc/arm-none-eabi/4.3.2/../../../../arm-none-eabi/lib/libc.a(lib_a-memcmp.o)
 .debug_frame   0x00002ae0       0x2c /opt/local/CodeSourcery/Sourcery_G++_Lite/bin/../lib/gcc/arm-none-eabi/4.3.2/../../../../arm-none-eabi/lib/libc.a(lib_a-memcpy.o)
 .debug_frame   0x00002b0c       0x2c /opt/local/CodeSourcery/Sourcery_G++_Lite/bin/../lib/gcc/arm-none-eabi/4.3.2/../../../../arm-none-eabi/lib/libc.a(lib_a-memmove.o)
 .debug_frame   0x00002b38       0x28 /opt/local/CodeSourcery/Sourcery_G++_Lite/bin/../lib/gcc/arm-none-eabi/4.3.2/../../../../arm-none-eabi/lib/libc.a(lib_a-memset.o)
 .debug_frame   0x00002b60       0x20 /opt/local/CodeSourcery/Sourcery_G++_Lite/bin/../lib/gcc/arm-none-eabi/4.3.2/../../../../arm-none-eabi/lib/libc.a(lib_a-strlen.o)
 .debug_frame   0x00002b80       0x2c /opt/local/CodeSourcery/Sourcery_G++_Lite/bin/../lib/gcc/arm-none-eabi/4.3.2/../../../../arm-none-eabi/lib/libc.a(lib_a-strncmp.o)

.debug_str      0x00000000     0x7bcc
 *(.debug_str)
 .debug_str     0x00000000      0xbe0 udp-sink.co
                                0xe17 (size before relaxing)
 .debug_str     0x00000be0       0xd9 obj_dcg-mcmote/collect-common.o
                                0x8ab (size before relaxing)
 .debug_str     0x00000cb9     0x3736 obj_dcg-mcmote/contiki-mc1322x-main.o
                               0x444b (size before relaxing)
 .debug_str     0x000043ef       0x20 obj_dcg-mcmote/symbols.o
                                 0x76 (size before relaxing)
 .debug_str     0x0000440f       0x73 contiki-dcg-mcmote.a(rimeaddr.o)
                                0x70f (size before relaxing)
 .debug_str     0x00004482       0x47 contiki-dcg-mcmote.a(nullmac.o)
                                0x7c2 (size before relaxing)
 .debug_str     0x000044c9      0x3e7 contiki-dcg-mcmote.a(nullrdc.o)
                                0xbf4 (size before relaxing)
 .debug_str     0x000048b0       0x3a contiki-dcg-mcmote.a(mac.o)
                                0x727 (size before relaxing)
 .debug_str     0x000048ea      0x199 contiki-dcg-mcmote.a(framer-802154.o)
                                0xbe3 (size before relaxing)
 .debug_str     0x00004a83      0x298 contiki-dcg-mcmote.a(rpl-dag.o)
                                0xd51 (size before relaxing)
 .debug_str     0x00004d1b      0x1e4 contiki-dcg-mcmote.a(rpl-icmp6.o)
                               0x1158 (size before relaxing)
 .debug_str     0x00004eff       0xc5 contiki-dcg-mcmote.a(rpl-timers.o)
                                0xafa (size before relaxing)
 .debug_str     0x00004fc4       0x8f contiki-dcg-mcmote.a(rpl-of-etx.o)
                                0xb18 (size before relaxing)
 .debug_str     0x00005053      0x16b contiki-dcg-mcmote.a(process.o)
                                0x85a (size before relaxing)
 .debug_str     0x000051be       0x3d contiki-dcg-mcmote.a(autostart.o)
                                0x712 (size before relaxing)
 .debug_str     0x000051fb       0xa2 contiki-dcg-mcmote.a(serial-line.o)
                                0x7d1 (size before relaxing)
 .debug_str     0x0000529d       0x49 contiki-dcg-mcmote.a(memb.o)
                                0x6d7 (size before relaxing)
 .debug_str     0x000052e6       0xab contiki-dcg-mcmote.a(list.o)
                                0x10c (size before relaxing)
 .debug_str     0x00005391      0x136 contiki-dcg-mcmote.a(etimer.o)
                                0x867 (size before relaxing)
 .debug_str     0x000054c7       0xb0 contiki-dcg-mcmote.a(ctimer.o)
                                0x7fb (size before relaxing)
 .debug_str     0x00005577       0x71 contiki-dcg-mcmote.a(stimer.o)
                                0x700 (size before relaxing)
 .debug_str     0x000055e8       0x38 contiki-dcg-mcmote.a(random.o)
                                0x6b6 (size before relaxing)
 .debug_str     0x00005620       0x5f contiki-dcg-mcmote.a(ringbuf.o)
                                0x70f (size before relaxing)
 .debug_str     0x0000567f       0x4c contiki-dcg-mcmote.a(uip-debug.o)
                                0x71f (size before relaxing)
 .debug_str     0x000056cb      0x1e2 contiki-dcg-mcmote.a(packetbuf.o)
                                0xbd8 (size before relaxing)
 .debug_str     0x000058ad      0x12f contiki-dcg-mcmote.a(queuebuf.o)
                                0xb3f (size before relaxing)
 .debug_str     0x000059dc      0x392 contiki-dcg-mcmote.a(uip6.o)
                                0xd59 (size before relaxing)
 .debug_str     0x00005d6e      0x190 contiki-dcg-mcmote.a(tcpip.o)
                                0xd1d (size before relaxing)
 .debug_str     0x00005efe       0x82 contiki-dcg-mcmote.a(uip-icmp6.o)
                                0x925 (size before relaxing)
 .debug_str     0x00005f80       0xf7 contiki-dcg-mcmote.a(uip-nd6.o)
                                0xa44 (size before relaxing)
 .debug_str     0x00006077      0x263 contiki-dcg-mcmote.a(sicslowpan.o)
                                0xe77 (size before relaxing)
 .debug_str     0x000062da      0x132 contiki-dcg-mcmote.a(neighbor-info.o)
                                0xb7b (size before relaxing)
 .debug_str     0x0000640c      0x432 contiki-dcg-mcmote.a(uip-ds6.o)
                                0xe1c (size before relaxing)
 .debug_str     0x0000683e       0x66 contiki-dcg-mcmote.a(clock.o)
                               0x39c1 (size before relaxing)
 .debug_str     0x000068a4       0x46 contiki-dcg-mcmote.a(button-sensor.o)
                               0x394e (size before relaxing)
 .debug_str     0x000068ea       0x90 contiki-dcg-mcmote.a(sensors.o)
                                0x7e6 (size before relaxing)
 .debug_str     0x0000697a       0x6f contiki-dcg-mcmote.a(watchdog.o)
                                 0xb5 (size before relaxing)
 .debug_str     0x000069e9       0x5f contiki-dcg-mcmote.a(contiki-crm.o)
                               0x391e (size before relaxing)
 .debug_str     0x00006a48      0x1e1 contiki-dcg-mcmote.a(contiki-maca.o)
                               0x3f8e (size before relaxing)
 .debug_str     0x00006c29       0x67 contiki-dcg-mcmote.a(contiki-misc.o)
                               0x3923 (size before relaxing)
 .debug_str     0x00006c90       0x6f contiki-dcg-mcmote.a(leds.o)
                                0x6fc (size before relaxing)
 .debug_str     0x00006cff       0x36 contiki-dcg-mcmote.a(contiki-uart.o)
                                 0xa4 (size before relaxing)
 .debug_str     0x00006d35       0xa6 contiki-dcg-mcmote.a(dbg-printf.o)
                                0x193 (size before relaxing)
 .debug_str     0x00006ddb      0x12a contiki-dcg-mcmote.a(strformat.o)
                                0x24e (size before relaxing)
 .debug_str     0x00006f05      0x6e4 contiki-dcg-mcmote.a(maca.o)
                               0x427b (size before relaxing)
 .debug_str     0x000075e9       0x29 contiki-dcg-mcmote.a(nvm.o)
                                0x2be (size before relaxing)
 .debug_str     0x00007612       0x8b contiki-dcg-mcmote.a(uart1.o)
                               0x3956 (size before relaxing)
 .debug_str     0x0000769d       0x85 contiki-dcg-mcmote.a(default_lowleve)
                               0x39fa (size before relaxing)
 .debug_str     0x00007722       0x48 contiki-dcg-mcmote.a(isr.o)
                               0x3997 (size before relaxing)
 .debug_str     0x0000776a       0xcd contiki-dcg-mcmote.a(frame802154.o)
                                0x8cc (size before relaxing)
 .debug_str     0x00007837       0x9e contiki-dcg-mcmote.a(rpl.o)
                                0xc12 (size before relaxing)
 .debug_str     0x000078d5       0x1a contiki-dcg-mcmote.a(timer.o)
                                0x6fc (size before relaxing)
 .debug_str     0x000078ef      0x1e7 contiki-dcg-mcmote.a(neighbor-attr.o)
                                0x9a8 (size before relaxing)
 .debug_str     0x00007ad6       0x33 contiki-dcg-mcmote.a(debug-uart.o)
                                0x6ac (size before relaxing)
 .debug_str     0x00007b09       0x4e contiki-dcg-mcmote.a(leds-arch.o)
                               0x3dbb (size before relaxing)
 .debug_str     0x00007b57       0x75 contiki-dcg-mcmote.a(uart2.o)
                               0x3956 (size before relaxing)

.debug_loc      0x00000000     0x91b9
 *(.debug_loc)
 .debug_loc     0x00000000      0x167 udp-sink.co
 .debug_loc     0x00000167      0x238 obj_dcg-mcmote/collect-common.o
 .debug_loc     0x0000039f      0x19d obj_dcg-mcmote/contiki-mc1322x-main.o
 .debug_loc     0x0000053c       0xc2 contiki-dcg-mcmote.a(rimeaddr.o)
 .debug_loc     0x000005fe       0xb5 contiki-dcg-mcmote.a(nullmac.o)
 .debug_loc     0x000006b3      0x165 contiki-dcg-mcmote.a(nullrdc.o)
 .debug_loc     0x00000818       0xb8 contiki-dcg-mcmote.a(mac.o)
 .debug_loc     0x000008d0       0xec contiki-dcg-mcmote.a(framer-802154.o)
 .debug_loc     0x000009bc      0xa6e contiki-dcg-mcmote.a(rpl-dag.o)
 .debug_loc     0x0000142a      0x7c1 contiki-dcg-mcmote.a(rpl-icmp6.o)
 .debug_loc     0x00001beb      0x1e7 contiki-dcg-mcmote.a(rpl-timers.o)
 .debug_loc     0x00001dd2      0x1d4 contiki-dcg-mcmote.a(rpl-of-etx.o)
 .debug_loc     0x00001fa6      0x3bc contiki-dcg-mcmote.a(process.o)
 .debug_loc     0x00002362       0x7a contiki-dcg-mcmote.a(autostart.o)
 .debug_loc     0x000023dc      0x177 contiki-dcg-mcmote.a(serial-line.o)
 .debug_loc     0x00002553      0x16c contiki-dcg-mcmote.a(memb.o)
 .debug_loc     0x000026bf      0x328 contiki-dcg-mcmote.a(list.o)
 .debug_loc     0x000029e7      0x407 contiki-dcg-mcmote.a(etimer.o)
 .debug_loc     0x00002dee      0x303 contiki-dcg-mcmote.a(ctimer.o)
 .debug_loc     0x000030f1      0x139 contiki-dcg-mcmote.a(stimer.o)
 .debug_loc     0x0000322a       0x51 contiki-dcg-mcmote.a(random.o)
 .debug_loc     0x0000327b       0xdc contiki-dcg-mcmote.a(ringbuf.o)
 .debug_loc     0x00003357      0x108 contiki-dcg-mcmote.a(uip-debug.o)
 .debug_loc     0x0000345f      0x31d contiki-dcg-mcmote.a(packetbuf.o)
 .debug_loc     0x0000377c      0x1e3 contiki-dcg-mcmote.a(queuebuf.o)
 .debug_loc     0x0000395f      0x5b7 contiki-dcg-mcmote.a(uip6.o)
 .debug_loc     0x00003f16      0x581 contiki-dcg-mcmote.a(tcpip.o)
 .debug_loc     0x00004497      0x164 contiki-dcg-mcmote.a(uip-icmp6.o)
 .debug_loc     0x000045fb      0x1e8 contiki-dcg-mcmote.a(uip-nd6.o)
 .debug_loc     0x000047e3      0x758 contiki-dcg-mcmote.a(sicslowpan.o)
 .debug_loc     0x00004f3b      0x23f contiki-dcg-mcmote.a(neighbor-info.o)
 .debug_loc     0x0000517a      0xced contiki-dcg-mcmote.a(uip-ds6.o)
 .debug_loc     0x00005e67       0x3e contiki-dcg-mcmote.a(clock.o)
 .debug_loc     0x00005ea5       0xff contiki-dcg-mcmote.a(button-sensor.o)
 .debug_loc     0x00005fa4      0x212 contiki-dcg-mcmote.a(sensors.o)
 .debug_loc     0x000061b6       0x70 contiki-dcg-mcmote.a(contiki-crm.o)
 .debug_loc     0x00006226      0x2a8 contiki-dcg-mcmote.a(contiki-maca.o)
 .debug_loc     0x000064ce       0x50 contiki-dcg-mcmote.a(contiki-misc.o)
 .debug_loc     0x0000651e      0x16a contiki-dcg-mcmote.a(leds.o)
 .debug_loc     0x00006688       0xd0 contiki-dcg-mcmote.a(dbg-printf.o)
 .debug_loc     0x00006758      0xd05 contiki-dcg-mcmote.a(strformat.o)
 .debug_loc     0x0000745d      0xdf4 contiki-dcg-mcmote.a(maca.o)
 .debug_loc     0x00008251       0xd5 contiki-dcg-mcmote.a(uart1.o)
 .debug_loc     0x00008326      0x1a6 contiki-dcg-mcmote.a(default_lowleve)
 .debug_loc     0x000084cc       0x1f contiki-dcg-mcmote.a(isr.o)
 .debug_loc     0x000084eb      0x29e contiki-dcg-mcmote.a(frame802154.o)
 .debug_loc     0x00008789      0x325 contiki-dcg-mcmote.a(rpl.o)
 .debug_loc     0x00008aae       0xfc contiki-dcg-mcmote.a(timer.o)
 .debug_loc     0x00008baa      0x470 contiki-dcg-mcmote.a(neighbor-attr.o)
 .debug_loc     0x0000901a       0x79 contiki-dcg-mcmote.a(debug-uart.o)
 .debug_loc     0x00009093       0x51 contiki-dcg-mcmote.a(leds-arch.o)
 .debug_loc     0x000090e4       0xd5 contiki-dcg-mcmote.a(uart2.o)

.debug_macinfo
 *(.debug_macinfo)

.debug_weaknames
 *(.debug_weaknames)

.debug_funcnames
 *(.debug_funcnames)

.debug_typenames
 *(.debug_typenames)

.debug_varnames
 *(.debug_varnames)

.debug_pubtypes
 *(.debug_pubtypes)

.debug_ranges   0x00000000      0x420
 *(.debug_ranges)
 .debug_ranges  0x00000000       0x18 udp-sink.co
 .debug_ranges  0x00000018       0x18 obj_dcg-mcmote/collect-common.o
 .debug_ranges  0x00000030       0xb0 contiki-dcg-mcmote.a(rpl-dag.o)
 .debug_ranges  0x000000e0      0x100 contiki-dcg-mcmote.a(rpl-icmp6.o)
 .debug_ranges  0x000001e0       0x18 contiki-dcg-mcmote.a(serial-line.o)
 .debug_ranges  0x000001f8       0x18 contiki-dcg-mcmote.a(ctimer.o)
 .debug_ranges  0x00000210       0x38 contiki-dcg-mcmote.a(tcpip.o)
 .debug_ranges  0x00000248      0x170 contiki-dcg-mcmote.a(sicslowpan.o)
 .debug_ranges  0x000003b8       0x18 contiki-dcg-mcmote.a(neighbor-info.o)
 .debug_ranges  0x000003d0       0x18 contiki-dcg-mcmote.a(sensors.o)
 .debug_ranges  0x000003e8       0x18 contiki-dcg-mcmote.a(contiki-maca.o)
 .debug_ranges  0x00000400       0x20 contiki-dcg-mcmote.a(isr.o)

.gnu.attributes
 *(.gnu.attributes)

.note.gnu.arm.ident
 *(.note.gnu.arm.ident)

/DISCARD/
 *(.note.GNU-stack)
 *(.gnu_debuglink)
OUTPUT(udp-sink.elf elf32-littlearm)

.ARM.attributes
                0x00000000       0x32
 .ARM.attributes
                0x00000000       0x32 udp-sink.co
 .ARM.attributes
                0x00000032       0x32 obj_dcg-mcmote/collect-common.o
 .ARM.attributes
                0x00000064       0x32 obj_dcg-mcmote/contiki-mc1322x-main.o
 .ARM.attributes
                0x00000096       0x1a obj_dcg-mcmote/start.o
 .ARM.attributes
                0x000000b0       0x2e obj_dcg-mcmote/symbols.o
 .ARM.attributes
                0x000000de       0x32 contiki-dcg-mcmote.a(rimeaddr.o)
 .ARM.attributes
                0x00000110       0x30 contiki-dcg-mcmote.a(nullmac.o)
 .ARM.attributes
                0x00000140       0x30 contiki-dcg-mcmote.a(nullrdc.o)
 .ARM.attributes
                0x00000170       0x32 contiki-dcg-mcmote.a(mac.o)
 .ARM.attributes
                0x000001a2       0x30 contiki-dcg-mcmote.a(framer-802154.o)
 .ARM.attributes
                0x000001d2       0x32 contiki-dcg-mcmote.a(rpl-dag.o)
 .ARM.attributes
                0x00000204       0x32 contiki-dcg-mcmote.a(rpl-icmp6.o)
 .ARM.attributes
                0x00000236       0x32 contiki-dcg-mcmote.a(rpl-timers.o)
 .ARM.attributes
                0x00000268       0x30 contiki-dcg-mcmote.a(rpl-of-etx.o)
 .ARM.attributes
                0x00000298       0x32 contiki-dcg-mcmote.a(process.o)
 .ARM.attributes
                0x000002ca       0x32 contiki-dcg-mcmote.a(autostart.o)
 .ARM.attributes
                0x000002fc       0x32 contiki-dcg-mcmote.a(serial-line.o)
 .ARM.attributes
                0x0000032e       0x32 contiki-dcg-mcmote.a(memb.o)
 .ARM.attributes
                0x00000360       0x32 contiki-dcg-mcmote.a(list.o)
 .ARM.attributes
                0x00000392       0x32 contiki-dcg-mcmote.a(etimer.o)
 .ARM.attributes
                0x000003c4       0x32 contiki-dcg-mcmote.a(ctimer.o)
 .ARM.attributes
                0x000003f6       0x32 contiki-dcg-mcmote.a(stimer.o)
 .ARM.attributes
                0x00000428       0x32 contiki-dcg-mcmote.a(random.o)
 .ARM.attributes
                0x0000045a       0x32 contiki-dcg-mcmote.a(ringbuf.o)
 .ARM.attributes
                0x0000048c       0x32 contiki-dcg-mcmote.a(uip-debug.o)
 .ARM.attributes
                0x000004be       0x32 contiki-dcg-mcmote.a(packetbuf.o)
 .ARM.attributes
                0x000004f0       0x32 contiki-dcg-mcmote.a(queuebuf.o)
 .ARM.attributes
                0x00000522       0x32 contiki-dcg-mcmote.a(uip6.o)
 .ARM.attributes
                0x00000554       0x32 contiki-dcg-mcmote.a(tcpip.o)
 .ARM.attributes
                0x00000586       0x32 contiki-dcg-mcmote.a(uip-icmp6.o)
 .ARM.attributes
                0x000005b8       0x32 contiki-dcg-mcmote.a(uip-nd6.o)
 .ARM.attributes
                0x000005ea       0x32 contiki-dcg-mcmote.a(sicslowpan.o)
 .ARM.attributes
                0x0000061c       0x32 contiki-dcg-mcmote.a(neighbor-info.o)
 .ARM.attributes
                0x0000064e       0x32 contiki-dcg-mcmote.a(uip-ds6.o)
 .ARM.attributes
                0x00000680       0x32 contiki-dcg-mcmote.a(clock.o)
 .ARM.attributes
                0x000006b2       0x32 contiki-dcg-mcmote.a(button-sensor.o)
 .ARM.attributes
                0x000006e4       0x32 contiki-dcg-mcmote.a(sensors.o)
 .ARM.attributes
                0x00000716       0x32 contiki-dcg-mcmote.a(watchdog.o)
 .ARM.attributes
                0x00000748       0x32 contiki-dcg-mcmote.a(contiki-crm.o)
 .ARM.attributes
                0x0000077a       0x32 contiki-dcg-mcmote.a(contiki-maca.o)
 .ARM.attributes
                0x000007ac       0x32 contiki-dcg-mcmote.a(contiki-misc.o)
 .ARM.attributes
                0x000007de       0x32 contiki-dcg-mcmote.a(leds.o)
 .ARM.attributes
                0x00000810       0x32 contiki-dcg-mcmote.a(contiki-uart.o)
 .ARM.attributes
                0x00000842       0x32 contiki-dcg-mcmote.a(dbg-printf.o)
 .ARM.attributes
                0x00000874       0x32 contiki-dcg-mcmote.a(strformat.o)
 .ARM.attributes
                0x000008a6       0x32 contiki-dcg-mcmote.a(maca.o)
 .ARM.attributes
                0x000008d8       0x2e contiki-dcg-mcmote.a(nvm.o)
 .ARM.attributes
                0x00000906       0x32 contiki-dcg-mcmote.a(uart1.o)
 .ARM.attributes
                0x00000938       0x32 contiki-dcg-mcmote.a(default_lowleve)
 .ARM.attributes
                0x0000096a       0x30 contiki-dcg-mcmote.a(isr.o)
 .ARM.attributes
                0x0000099a       0x32 contiki-dcg-mcmote.a(frame802154.o)
 .ARM.attributes
                0x000009cc       0x32 contiki-dcg-mcmote.a(rpl.o)
 .ARM.attributes
                0x000009fe       0x32 contiki-dcg-mcmote.a(timer.o)
 .ARM.attributes
                0x00000a30       0x32 contiki-dcg-mcmote.a(neighbor-attr.o)
 .ARM.attributes
                0x00000a62       0x32 contiki-dcg-mcmote.a(debug-uart.o)
 .ARM.attributes
                0x00000a94       0x32 contiki-dcg-mcmote.a(leds-arch.o)
 .ARM.attributes
                0x00000ac6       0x32 contiki-dcg-mcmote.a(uart2.o)
 .ARM.attributes
                0x00000af8       0x14 /opt/local/CodeSourcery/Sourcery_G++_Lite/bin/../lib/gcc/arm-none-eabi/4.3.2/libgcc.a(_udivsi3.o)
 .ARM.attributes
                0x00000b0c       0x14 /opt/local/CodeSourcery/Sourcery_G++_Lite/bin/../lib/gcc/arm-none-eabi/4.3.2/libgcc.a(_divsi3.o)
 .ARM.attributes
                0x00000b20       0x14 /opt/local/CodeSourcery/Sourcery_G++_Lite/bin/../lib/gcc/arm-none-eabi/4.3.2/libgcc.a(_dvmd_tls.o)
 .ARM.attributes
                0x00000b34       0x14 /opt/local/CodeSourcery/Sourcery_G++_Lite/bin/../lib/gcc/arm-none-eabi/4.3.2/libgcc.a(_aeabi_uldivmod.o)
 .ARM.attributes
                0x00000b48       0x2e /opt/local/CodeSourcery/Sourcery_G++_Lite/bin/../lib/gcc/arm-none-eabi/4.3.2/libgcc.a(bpabi.o)
 .ARM.attributes
                0x00000b76       0x2e /opt/local/CodeSourcery/Sourcery_G++_Lite/bin/../lib/gcc/arm-none-eabi/4.3.2/libgcc.a(_divdi3.o)
 .ARM.attributes
                0x00000ba4       0x2e /opt/local/CodeSourcery/Sourcery_G++_Lite/bin/../lib/gcc/arm-none-eabi/4.3.2/libgcc.a(_udivdi3.o)
 .ARM.attributes
                0x00000bd2       0x2c /opt/local/CodeSourcery/Sourcery_G++_Lite/bin/../lib/gcc/arm-none-eabi/4.3.2/libgcc.a(_clz.o)
 .ARM.attributes
                0x00000bfe       0x2c /opt/local/CodeSourcery/Sourcery_G++_Lite/bin/../lib/gcc/arm-none-eabi/4.3.2/../../../../arm-none-eabi/lib/libc.a(lib_a-ctype_.o)
 .ARM.attributes
                0x00000c2a       0x2e /opt/local/CodeSourcery/Sourcery_G++_Lite/bin/../lib/gcc/arm-none-eabi/4.3.2/../../../../arm-none-eabi/lib/libc.a(lib_a-memcmp.o)
 .ARM.attributes
                0x00000c58       0x2e /opt/local/CodeSourcery/Sourcery_G++_Lite/bin/../lib/gcc/arm-none-eabi/4.3.2/../../../../arm-none-eabi/lib/libc.a(lib_a-memcpy.o)
 .ARM.attributes
                0x00000c86       0x2e /opt/local/CodeSourcery/Sourcery_G++_Lite/bin/../lib/gcc/arm-none-eabi/4.3.2/../../../../arm-none-eabi/lib/libc.a(lib_a-memmove.o)
 .ARM.attributes
                0x00000cb4       0x2e /opt/local/CodeSourcery/Sourcery_G++_Lite/bin/../lib/gcc/arm-none-eabi/4.3.2/../../../../arm-none-eabi/lib/libc.a(lib_a-memset.o)
 .ARM.attributes
                0x00000ce2       0x2e /opt/local/CodeSourcery/Sourcery_G++_Lite/bin/../lib/gcc/arm-none-eabi/4.3.2/../../../../arm-none-eabi/lib/libc.a(lib_a-strlen.o)
 .ARM.attributes
                0x00000d10       0x2e /opt/local/CodeSourcery/Sourcery_G++_Lite/bin/../lib/gcc/arm-none-eabi/4.3.2/../../../../arm-none-eabi/lib/libc.a(lib_a-strncmp.o)
